
SD_card.elf:     file format elf32-littlearm

Sections:
Idx Name          Size      VMA       LMA       File off  Algn
  0 .isr_vector   00000198  08000000  08000000  00001000  2**0
                  CONTENTS, ALLOC, LOAD, READONLY, DATA
  1 .text         000037a8  08000198  08000198  00001198  2**2
                  CONTENTS, ALLOC, LOAD, READONLY, CODE
  2 .rodata       00000484  08003940  08003940  00004940  2**1
                  CONTENTS, ALLOC, LOAD, READONLY, DATA
  3 .ARM.extab    00000000  08003dc4  08003dc4  00005024  2**0
                  CONTENTS
  4 .ARM          00000008  08003dc4  08003dc4  00004dc4  2**2
                  CONTENTS, ALLOC, LOAD, READONLY, DATA
  5 .preinit_array 00000000  08003dcc  08003dcc  00005024  2**0
                  CONTENTS, ALLOC, LOAD, DATA
  6 .init_array   00000004  08003dcc  08003dcc  00004dcc  2**2
                  CONTENTS, ALLOC, LOAD, READONLY, DATA
  7 .fini_array   00000004  08003dd0  08003dd0  00004dd0  2**2
                  CONTENTS, ALLOC, LOAD, READONLY, DATA
  8 .data         00000024  20000000  08003dd4  00005000  2**2
                  CONTENTS, ALLOC, LOAD, DATA
  9 .bss          000005d8  20000024  08003df8  00005024  2**2
                  ALLOC
 10 ._user_heap_stack 00000604  200005fc  08003df8  000055fc  2**0
                  ALLOC
 11 .ARM.attributes 00000030  00000000  00000000  00005024  2**0
                  CONTENTS, READONLY
 12 .comment      00000043  00000000  00000000  00005054  2**0
                  CONTENTS, READONLY
 13 .debug_frame  000000ac  00000000  00000000  00005098  2**2
                  CONTENTS, READONLY, DEBUGGING, OCTETS

Disassembly of section .text:

08000198 <__do_global_dtors_aux>:
 8000198:	b510      	push	{r4, lr}
 800019a:	4c05      	ldr	r4, [pc, #20]	@ (80001b0 <__do_global_dtors_aux+0x18>)
 800019c:	7823      	ldrb	r3, [r4, #0]
 800019e:	b933      	cbnz	r3, 80001ae <__do_global_dtors_aux+0x16>
 80001a0:	4b04      	ldr	r3, [pc, #16]	@ (80001b4 <__do_global_dtors_aux+0x1c>)
 80001a2:	b113      	cbz	r3, 80001aa <__do_global_dtors_aux+0x12>
 80001a4:	4804      	ldr	r0, [pc, #16]	@ (80001b8 <__do_global_dtors_aux+0x20>)
 80001a6:	f3af 8000 	nop.w
 80001aa:	2301      	movs	r3, #1
 80001ac:	7023      	strb	r3, [r4, #0]
 80001ae:	bd10      	pop	{r4, pc}
 80001b0:	20000024 	.word	0x20000024
 80001b4:	00000000 	.word	0x00000000
 80001b8:	08003928 	.word	0x08003928

080001bc <frame_dummy>:
 80001bc:	b508      	push	{r3, lr}
 80001be:	4b03      	ldr	r3, [pc, #12]	@ (80001cc <frame_dummy+0x10>)
 80001c0:	b11b      	cbz	r3, 80001ca <frame_dummy+0xe>
 80001c2:	4903      	ldr	r1, [pc, #12]	@ (80001d0 <frame_dummy+0x14>)
 80001c4:	4803      	ldr	r0, [pc, #12]	@ (80001d4 <frame_dummy+0x18>)
 80001c6:	f3af 8000 	nop.w
 80001ca:	bd08      	pop	{r3, pc}
 80001cc:	00000000 	.word	0x00000000
 80001d0:	20000028 	.word	0x20000028
 80001d4:	08003928 	.word	0x08003928

080001d8 <__aeabi_uldivmod>:
 80001d8:	b953      	cbnz	r3, 80001f0 <__aeabi_uldivmod+0x18>
 80001da:	b94a      	cbnz	r2, 80001f0 <__aeabi_uldivmod+0x18>
 80001dc:	2900      	cmp	r1, #0
 80001de:	bf08      	it	eq
 80001e0:	2800      	cmpeq	r0, #0
 80001e2:	bf1c      	itt	ne
 80001e4:	f04f 31ff 	movne.w	r1, #4294967295
 80001e8:	f04f 30ff 	movne.w	r0, #4294967295
 80001ec:	f000 b96a 	b.w	80004c4 <__aeabi_idiv0>
 80001f0:	f1ad 0c08 	sub.w	ip, sp, #8
 80001f4:	e96d ce04 	strd	ip, lr, [sp, #-16]!
 80001f8:	f000 f806 	bl	8000208 <__udivmoddi4>
 80001fc:	f8dd e004 	ldr.w	lr, [sp, #4]
 8000200:	e9dd 2302 	ldrd	r2, r3, [sp, #8]
 8000204:	b004      	add	sp, #16
 8000206:	4770      	bx	lr

08000208 <__udivmoddi4>:
 8000208:	e92d 47f0 	stmdb	sp!, {r4, r5, r6, r7, r8, r9, sl, lr}
 800020c:	9d08      	ldr	r5, [sp, #32]
 800020e:	460c      	mov	r4, r1
 8000210:	2b00      	cmp	r3, #0
 8000212:	d14e      	bne.n	80002b2 <__udivmoddi4+0xaa>
 8000214:	4694      	mov	ip, r2
 8000216:	458c      	cmp	ip, r1
 8000218:	4686      	mov	lr, r0
 800021a:	fab2 f282 	clz	r2, r2
 800021e:	d962      	bls.n	80002e6 <__udivmoddi4+0xde>
 8000220:	b14a      	cbz	r2, 8000236 <__udivmoddi4+0x2e>
 8000222:	f1c2 0320 	rsb	r3, r2, #32
 8000226:	4091      	lsls	r1, r2
 8000228:	fa20 f303 	lsr.w	r3, r0, r3
 800022c:	fa0c fc02 	lsl.w	ip, ip, r2
 8000230:	4319      	orrs	r1, r3
 8000232:	fa00 fe02 	lsl.w	lr, r0, r2
 8000236:	ea4f 471c 	mov.w	r7, ip, lsr #16
 800023a:	fa1f f68c 	uxth.w	r6, ip
 800023e:	fbb1 f4f7 	udiv	r4, r1, r7
 8000242:	ea4f 431e 	mov.w	r3, lr, lsr #16
 8000246:	fb07 1114 	mls	r1, r7, r4, r1
 800024a:	ea43 4301 	orr.w	r3, r3, r1, lsl #16
 800024e:	fb04 f106 	mul.w	r1, r4, r6
 8000252:	4299      	cmp	r1, r3
 8000254:	d90a      	bls.n	800026c <__udivmoddi4+0x64>
 8000256:	eb1c 0303 	adds.w	r3, ip, r3
 800025a:	f104 30ff 	add.w	r0, r4, #4294967295
 800025e:	f080 8112 	bcs.w	8000486 <__udivmoddi4+0x27e>
 8000262:	4299      	cmp	r1, r3
 8000264:	f240 810f 	bls.w	8000486 <__udivmoddi4+0x27e>
 8000268:	3c02      	subs	r4, #2
 800026a:	4463      	add	r3, ip
 800026c:	1a59      	subs	r1, r3, r1
 800026e:	fa1f f38e 	uxth.w	r3, lr
 8000272:	fbb1 f0f7 	udiv	r0, r1, r7
 8000276:	fb07 1110 	mls	r1, r7, r0, r1
 800027a:	ea43 4301 	orr.w	r3, r3, r1, lsl #16
 800027e:	fb00 f606 	mul.w	r6, r0, r6
 8000282:	429e      	cmp	r6, r3
 8000284:	d90a      	bls.n	800029c <__udivmoddi4+0x94>
 8000286:	eb1c 0303 	adds.w	r3, ip, r3
 800028a:	f100 31ff 	add.w	r1, r0, #4294967295
 800028e:	f080 80fc 	bcs.w	800048a <__udivmoddi4+0x282>
 8000292:	429e      	cmp	r6, r3
 8000294:	f240 80f9 	bls.w	800048a <__udivmoddi4+0x282>
 8000298:	4463      	add	r3, ip
 800029a:	3802      	subs	r0, #2
 800029c:	1b9b      	subs	r3, r3, r6
 800029e:	ea40 4004 	orr.w	r0, r0, r4, lsl #16
 80002a2:	2100      	movs	r1, #0
 80002a4:	b11d      	cbz	r5, 80002ae <__udivmoddi4+0xa6>
 80002a6:	40d3      	lsrs	r3, r2
 80002a8:	2200      	movs	r2, #0
 80002aa:	e9c5 3200 	strd	r3, r2, [r5]
 80002ae:	e8bd 87f0 	ldmia.w	sp!, {r4, r5, r6, r7, r8, r9, sl, pc}
 80002b2:	428b      	cmp	r3, r1
 80002b4:	d905      	bls.n	80002c2 <__udivmoddi4+0xba>
 80002b6:	b10d      	cbz	r5, 80002bc <__udivmoddi4+0xb4>
 80002b8:	e9c5 0100 	strd	r0, r1, [r5]
 80002bc:	2100      	movs	r1, #0
 80002be:	4608      	mov	r0, r1
 80002c0:	e7f5      	b.n	80002ae <__udivmoddi4+0xa6>
 80002c2:	fab3 f183 	clz	r1, r3
 80002c6:	2900      	cmp	r1, #0
 80002c8:	d146      	bne.n	8000358 <__udivmoddi4+0x150>
 80002ca:	42a3      	cmp	r3, r4
 80002cc:	d302      	bcc.n	80002d4 <__udivmoddi4+0xcc>
 80002ce:	4290      	cmp	r0, r2
 80002d0:	f0c0 80f0 	bcc.w	80004b4 <__udivmoddi4+0x2ac>
 80002d4:	1a86      	subs	r6, r0, r2
 80002d6:	eb64 0303 	sbc.w	r3, r4, r3
 80002da:	2001      	movs	r0, #1
 80002dc:	2d00      	cmp	r5, #0
 80002de:	d0e6      	beq.n	80002ae <__udivmoddi4+0xa6>
 80002e0:	e9c5 6300 	strd	r6, r3, [r5]
 80002e4:	e7e3      	b.n	80002ae <__udivmoddi4+0xa6>
 80002e6:	2a00      	cmp	r2, #0
 80002e8:	f040 8090 	bne.w	800040c <__udivmoddi4+0x204>
 80002ec:	eba1 040c 	sub.w	r4, r1, ip
 80002f0:	ea4f 481c 	mov.w	r8, ip, lsr #16
 80002f4:	fa1f f78c 	uxth.w	r7, ip
 80002f8:	2101      	movs	r1, #1
 80002fa:	fbb4 f6f8 	udiv	r6, r4, r8
 80002fe:	ea4f 431e 	mov.w	r3, lr, lsr #16
 8000302:	fb08 4416 	mls	r4, r8, r6, r4
 8000306:	ea43 4304 	orr.w	r3, r3, r4, lsl #16
 800030a:	fb07 f006 	mul.w	r0, r7, r6
 800030e:	4298      	cmp	r0, r3
 8000310:	d908      	bls.n	8000324 <__udivmoddi4+0x11c>
 8000312:	eb1c 0303 	adds.w	r3, ip, r3
 8000316:	f106 34ff 	add.w	r4, r6, #4294967295
 800031a:	d202      	bcs.n	8000322 <__udivmoddi4+0x11a>
 800031c:	4298      	cmp	r0, r3
 800031e:	f200 80cd 	bhi.w	80004bc <__udivmoddi4+0x2b4>
 8000322:	4626      	mov	r6, r4
 8000324:	1a1c      	subs	r4, r3, r0
 8000326:	fa1f f38e 	uxth.w	r3, lr
 800032a:	fbb4 f0f8 	udiv	r0, r4, r8
 800032e:	fb08 4410 	mls	r4, r8, r0, r4
 8000332:	ea43 4304 	orr.w	r3, r3, r4, lsl #16
 8000336:	fb00 f707 	mul.w	r7, r0, r7
 800033a:	429f      	cmp	r7, r3
 800033c:	d908      	bls.n	8000350 <__udivmoddi4+0x148>
 800033e:	eb1c 0303 	adds.w	r3, ip, r3
 8000342:	f100 34ff 	add.w	r4, r0, #4294967295
 8000346:	d202      	bcs.n	800034e <__udivmoddi4+0x146>
 8000348:	429f      	cmp	r7, r3
 800034a:	f200 80b0 	bhi.w	80004ae <__udivmoddi4+0x2a6>
 800034e:	4620      	mov	r0, r4
 8000350:	1bdb      	subs	r3, r3, r7
 8000352:	ea40 4006 	orr.w	r0, r0, r6, lsl #16
 8000356:	e7a5      	b.n	80002a4 <__udivmoddi4+0x9c>
 8000358:	f1c1 0620 	rsb	r6, r1, #32
 800035c:	408b      	lsls	r3, r1
 800035e:	fa22 f706 	lsr.w	r7, r2, r6
 8000362:	431f      	orrs	r7, r3
 8000364:	fa20 fc06 	lsr.w	ip, r0, r6
 8000368:	fa04 f301 	lsl.w	r3, r4, r1
 800036c:	ea43 030c 	orr.w	r3, r3, ip
 8000370:	40f4      	lsrs	r4, r6
 8000372:	fa00 f801 	lsl.w	r8, r0, r1
 8000376:	0c38      	lsrs	r0, r7, #16
 8000378:	ea4f 4913 	mov.w	r9, r3, lsr #16
 800037c:	fbb4 fef0 	udiv	lr, r4, r0
 8000380:	fa1f fc87 	uxth.w	ip, r7
 8000384:	fb00 441e 	mls	r4, r0, lr, r4
 8000388:	ea49 4404 	orr.w	r4, r9, r4, lsl #16
 800038c:	fb0e f90c 	mul.w	r9, lr, ip
 8000390:	45a1      	cmp	r9, r4
 8000392:	fa02 f201 	lsl.w	r2, r2, r1
 8000396:	d90a      	bls.n	80003ae <__udivmoddi4+0x1a6>
 8000398:	193c      	adds	r4, r7, r4
 800039a:	f10e 3aff 	add.w	sl, lr, #4294967295
 800039e:	f080 8084 	bcs.w	80004aa <__udivmoddi4+0x2a2>
 80003a2:	45a1      	cmp	r9, r4
 80003a4:	f240 8081 	bls.w	80004aa <__udivmoddi4+0x2a2>
 80003a8:	f1ae 0e02 	sub.w	lr, lr, #2
 80003ac:	443c      	add	r4, r7
 80003ae:	eba4 0409 	sub.w	r4, r4, r9
 80003b2:	fa1f f983 	uxth.w	r9, r3
 80003b6:	fbb4 f3f0 	udiv	r3, r4, r0
 80003ba:	fb00 4413 	mls	r4, r0, r3, r4
 80003be:	ea49 4404 	orr.w	r4, r9, r4, lsl #16
 80003c2:	fb03 fc0c 	mul.w	ip, r3, ip
 80003c6:	45a4      	cmp	ip, r4
 80003c8:	d907      	bls.n	80003da <__udivmoddi4+0x1d2>
 80003ca:	193c      	adds	r4, r7, r4
 80003cc:	f103 30ff 	add.w	r0, r3, #4294967295
 80003d0:	d267      	bcs.n	80004a2 <__udivmoddi4+0x29a>
 80003d2:	45a4      	cmp	ip, r4
 80003d4:	d965      	bls.n	80004a2 <__udivmoddi4+0x29a>
 80003d6:	3b02      	subs	r3, #2
 80003d8:	443c      	add	r4, r7
 80003da:	ea43 400e 	orr.w	r0, r3, lr, lsl #16
 80003de:	fba0 9302 	umull	r9, r3, r0, r2
 80003e2:	eba4 040c 	sub.w	r4, r4, ip
 80003e6:	429c      	cmp	r4, r3
 80003e8:	46ce      	mov	lr, r9
 80003ea:	469c      	mov	ip, r3
 80003ec:	d351      	bcc.n	8000492 <__udivmoddi4+0x28a>
 80003ee:	d04e      	beq.n	800048e <__udivmoddi4+0x286>
 80003f0:	b155      	cbz	r5, 8000408 <__udivmoddi4+0x200>
 80003f2:	ebb8 030e 	subs.w	r3, r8, lr
 80003f6:	eb64 040c 	sbc.w	r4, r4, ip
 80003fa:	fa04 f606 	lsl.w	r6, r4, r6
 80003fe:	40cb      	lsrs	r3, r1
 8000400:	431e      	orrs	r6, r3
 8000402:	40cc      	lsrs	r4, r1
 8000404:	e9c5 6400 	strd	r6, r4, [r5]
 8000408:	2100      	movs	r1, #0
 800040a:	e750      	b.n	80002ae <__udivmoddi4+0xa6>
 800040c:	f1c2 0320 	rsb	r3, r2, #32
 8000410:	fa20 f103 	lsr.w	r1, r0, r3
 8000414:	fa0c fc02 	lsl.w	ip, ip, r2
 8000418:	fa24 f303 	lsr.w	r3, r4, r3
 800041c:	4094      	lsls	r4, r2
 800041e:	430c      	orrs	r4, r1
 8000420:	ea4f 481c 	mov.w	r8, ip, lsr #16
 8000424:	fa00 fe02 	lsl.w	lr, r0, r2
 8000428:	fa1f f78c 	uxth.w	r7, ip
 800042c:	fbb3 f0f8 	udiv	r0, r3, r8
 8000430:	fb08 3110 	mls	r1, r8, r0, r3
 8000434:	0c23      	lsrs	r3, r4, #16
 8000436:	ea43 4301 	orr.w	r3, r3, r1, lsl #16
 800043a:	fb00 f107 	mul.w	r1, r0, r7
 800043e:	4299      	cmp	r1, r3
 8000440:	d908      	bls.n	8000454 <__udivmoddi4+0x24c>
 8000442:	eb1c 0303 	adds.w	r3, ip, r3
 8000446:	f100 36ff 	add.w	r6, r0, #4294967295
 800044a:	d22c      	bcs.n	80004a6 <__udivmoddi4+0x29e>
 800044c:	4299      	cmp	r1, r3
 800044e:	d92a      	bls.n	80004a6 <__udivmoddi4+0x29e>
 8000450:	3802      	subs	r0, #2
 8000452:	4463      	add	r3, ip
 8000454:	1a5b      	subs	r3, r3, r1
 8000456:	b2a4      	uxth	r4, r4
 8000458:	fbb3 f1f8 	udiv	r1, r3, r8
 800045c:	fb08 3311 	mls	r3, r8, r1, r3
 8000460:	ea44 4403 	orr.w	r4, r4, r3, lsl #16
 8000464:	fb01 f307 	mul.w	r3, r1, r7
 8000468:	42a3      	cmp	r3, r4
 800046a:	d908      	bls.n	800047e <__udivmoddi4+0x276>
 800046c:	eb1c 0404 	adds.w	r4, ip, r4
 8000470:	f101 36ff 	add.w	r6, r1, #4294967295
 8000474:	d213      	bcs.n	800049e <__udivmoddi4+0x296>
 8000476:	42a3      	cmp	r3, r4
 8000478:	d911      	bls.n	800049e <__udivmoddi4+0x296>
 800047a:	3902      	subs	r1, #2
 800047c:	4464      	add	r4, ip
 800047e:	1ae4      	subs	r4, r4, r3
 8000480:	ea41 4100 	orr.w	r1, r1, r0, lsl #16
 8000484:	e739      	b.n	80002fa <__udivmoddi4+0xf2>
 8000486:	4604      	mov	r4, r0
 8000488:	e6f0      	b.n	800026c <__udivmoddi4+0x64>
 800048a:	4608      	mov	r0, r1
 800048c:	e706      	b.n	800029c <__udivmoddi4+0x94>
 800048e:	45c8      	cmp	r8, r9
 8000490:	d2ae      	bcs.n	80003f0 <__udivmoddi4+0x1e8>
 8000492:	ebb9 0e02 	subs.w	lr, r9, r2
 8000496:	eb63 0c07 	sbc.w	ip, r3, r7
 800049a:	3801      	subs	r0, #1
 800049c:	e7a8      	b.n	80003f0 <__udivmoddi4+0x1e8>
 800049e:	4631      	mov	r1, r6
 80004a0:	e7ed      	b.n	800047e <__udivmoddi4+0x276>
 80004a2:	4603      	mov	r3, r0
 80004a4:	e799      	b.n	80003da <__udivmoddi4+0x1d2>
 80004a6:	4630      	mov	r0, r6
 80004a8:	e7d4      	b.n	8000454 <__udivmoddi4+0x24c>
 80004aa:	46d6      	mov	lr, sl
 80004ac:	e77f      	b.n	80003ae <__udivmoddi4+0x1a6>
 80004ae:	4463      	add	r3, ip
 80004b0:	3802      	subs	r0, #2
 80004b2:	e74d      	b.n	8000350 <__udivmoddi4+0x148>
 80004b4:	4606      	mov	r6, r0
 80004b6:	4623      	mov	r3, r4
 80004b8:	4608      	mov	r0, r1
 80004ba:	e70f      	b.n	80002dc <__udivmoddi4+0xd4>
 80004bc:	3e02      	subs	r6, #2
 80004be:	4463      	add	r3, ip
 80004c0:	e730      	b.n	8000324 <__udivmoddi4+0x11c>
 80004c2:	bf00      	nop

080004c4 <__aeabi_idiv0>:
 80004c4:	4770      	bx	lr
 80004c6:	bf00      	nop

080004c8 <SystemClock_Config>:
 80004c8:	b510      	push	{r4, lr}
 80004ca:	b094      	sub	sp, #80	@ 0x50
 80004cc:	2210      	movs	r2, #16
 80004ce:	2100      	movs	r1, #0
 80004d0:	a80a      	add	r0, sp, #40	@ 0x28
 80004d2:	f003 f9fd 	bl	80038d0 <memset>
 80004d6:	2214      	movs	r2, #20
 80004d8:	2100      	movs	r1, #0
 80004da:	a803      	add	r0, sp, #12
 80004dc:	f003 f9f8 	bl	80038d0 <memset>
 80004e0:	4b20      	ldr	r3, [pc, #128]	@ (8000564 <SystemClock_Config+0x9c>)
 80004e2:	2100      	movs	r1, #0
 80004e4:	9101      	str	r1, [sp, #4]
 80004e6:	6c1a      	ldr	r2, [r3, #64]	@ 0x40
 80004e8:	f042 5280 	orr.w	r2, r2, #268435456	@ 0x10000000
 80004ec:	641a      	str	r2, [r3, #64]	@ 0x40
 80004ee:	6c1b      	ldr	r3, [r3, #64]	@ 0x40
 80004f0:	f003 5380 	and.w	r3, r3, #268435456	@ 0x10000000
 80004f4:	9301      	str	r3, [sp, #4]
 80004f6:	9b01      	ldr	r3, [sp, #4]
 80004f8:	4b1b      	ldr	r3, [pc, #108]	@ (8000568 <SystemClock_Config+0xa0>)
 80004fa:	9102      	str	r1, [sp, #8]
 80004fc:	681a      	ldr	r2, [r3, #0]
 80004fe:	f442 4240 	orr.w	r2, r2, #49152	@ 0xc000
 8000502:	601a      	str	r2, [r3, #0]
 8000504:	681b      	ldr	r3, [r3, #0]
 8000506:	f403 4340 	and.w	r3, r3, #49152	@ 0xc000
 800050a:	9302      	str	r3, [sp, #8]
 800050c:	9b02      	ldr	r3, [sp, #8]
 800050e:	2201      	movs	r2, #1
 8000510:	f44f 3380 	mov.w	r3, #65536	@ 0x10000
 8000514:	2402      	movs	r4, #2
 8000516:	e9cd 2308 	strd	r2, r3, [sp, #32]
 800051a:	f44f 0380 	mov.w	r3, #4194304	@ 0x400000
 800051e:	e9cd 430e 	strd	r4, r3, [sp, #56]	@ 0x38
 8000522:	2119      	movs	r1, #25
 8000524:	23a8      	movs	r3, #168	@ 0xa8
 8000526:	e9cd 1310 	strd	r1, r3, [sp, #64]	@ 0x40
 800052a:	a808      	add	r0, sp, #32
 800052c:	2304      	movs	r3, #4
 800052e:	9412      	str	r4, [sp, #72]	@ 0x48
 8000530:	9313      	str	r3, [sp, #76]	@ 0x4c
 8000532:	f000 fd4d 	bl	8000fd0 <HAL_RCC_OscConfig>
 8000536:	b108      	cbz	r0, 800053c <SystemClock_Config+0x74>
 8000538:	b672      	cpsid	i
 800053a:	e7fe      	b.n	800053a <SystemClock_Config+0x72>
 800053c:	230f      	movs	r3, #15
 800053e:	e9cd 3403 	strd	r3, r4, [sp, #12]
 8000542:	f44f 5380 	mov.w	r3, #4096	@ 0x1000
 8000546:	e9cd 3006 	strd	r3, r0, [sp, #24]
 800054a:	9005      	str	r0, [sp, #20]
 800054c:	4621      	mov	r1, r4
 800054e:	a803      	add	r0, sp, #12
 8000550:	f000 ff20 	bl	8001394 <HAL_RCC_ClockConfig>
 8000554:	b108      	cbz	r0, 800055a <SystemClock_Config+0x92>
 8000556:	b672      	cpsid	i
 8000558:	e7fe      	b.n	8000558 <SystemClock_Config+0x90>
 800055a:	f000 fee7 	bl	800132c <HAL_RCC_EnableCSS>
 800055e:	b014      	add	sp, #80	@ 0x50
 8000560:	bd10      	pop	{r4, pc}
 8000562:	bf00      	nop
 8000564:	40023800 	.word	0x40023800
 8000568:	40007000 	.word	0x40007000

0800056c <main>:
 800056c:	b570      	push	{r4, r5, r6, lr}
 800056e:	f5ad 7d1a 	sub.w	sp, sp, #616	@ 0x268
 8000572:	2400      	movs	r4, #0
 8000574:	4d6d      	ldr	r5, [pc, #436]	@ (800072c <main+0x1c0>)
 8000576:	f000 f9e7 	bl	8000948 <HAL_Init>
 800057a:	f7ff ffa5 	bl	80004c8 <SystemClock_Config>
 800057e:	2214      	movs	r2, #20
 8000580:	2100      	movs	r1, #0
 8000582:	a80e      	add	r0, sp, #56	@ 0x38
 8000584:	f003 f9a4 	bl	80038d0 <memset>
 8000588:	9404      	str	r4, [sp, #16]
 800058a:	6b2b      	ldr	r3, [r5, #48]	@ 0x30
 800058c:	4868      	ldr	r0, [pc, #416]	@ (8000730 <main+0x1c4>)
 800058e:	f043 0380 	orr.w	r3, r3, #128	@ 0x80
 8000592:	632b      	str	r3, [r5, #48]	@ 0x30
 8000594:	6b2b      	ldr	r3, [r5, #48]	@ 0x30
 8000596:	f003 0380 	and.w	r3, r3, #128	@ 0x80
 800059a:	9304      	str	r3, [sp, #16]
 800059c:	9b04      	ldr	r3, [sp, #16]
 800059e:	9405      	str	r4, [sp, #20]
 80005a0:	6b2b      	ldr	r3, [r5, #48]	@ 0x30
 80005a2:	f043 0301 	orr.w	r3, r3, #1
 80005a6:	632b      	str	r3, [r5, #48]	@ 0x30
 80005a8:	6b2b      	ldr	r3, [r5, #48]	@ 0x30
 80005aa:	f003 0301 	and.w	r3, r3, #1
 80005ae:	9305      	str	r3, [sp, #20]
 80005b0:	9b05      	ldr	r3, [sp, #20]
 80005b2:	9406      	str	r4, [sp, #24]
 80005b4:	6b2b      	ldr	r3, [r5, #48]	@ 0x30
 80005b6:	f043 0304 	orr.w	r3, r3, #4
 80005ba:	632b      	str	r3, [r5, #48]	@ 0x30
 80005bc:	6b2b      	ldr	r3, [r5, #48]	@ 0x30
 80005be:	f003 0304 	and.w	r3, r3, #4
 80005c2:	9306      	str	r3, [sp, #24]
 80005c4:	9b06      	ldr	r3, [sp, #24]
 80005c6:	9407      	str	r4, [sp, #28]
 80005c8:	6b2b      	ldr	r3, [r5, #48]	@ 0x30
 80005ca:	f043 0302 	orr.w	r3, r3, #2
 80005ce:	632b      	str	r3, [r5, #48]	@ 0x30
 80005d0:	6b2b      	ldr	r3, [r5, #48]	@ 0x30
 80005d2:	f003 0302 	and.w	r3, r3, #2
 80005d6:	9307      	str	r3, [sp, #28]
 80005d8:	4622      	mov	r2, r4
 80005da:	2120      	movs	r1, #32
 80005dc:	9b07      	ldr	r3, [sp, #28]
 80005de:	f000 fce9 	bl	8000fb4 <HAL_GPIO_WritePin>
 80005e2:	4622      	mov	r2, r4
 80005e4:	4853      	ldr	r0, [pc, #332]	@ (8000734 <main+0x1c8>)
 80005e6:	2110      	movs	r1, #16
 80005e8:	f000 fce4 	bl	8000fb4 <HAL_GPIO_WritePin>
 80005ec:	2601      	movs	r6, #1
 80005ee:	2320      	movs	r3, #32
 80005f0:	484f      	ldr	r0, [pc, #316]	@ (8000730 <main+0x1c4>)
 80005f2:	a90e      	add	r1, sp, #56	@ 0x38
 80005f4:	e9cd 360e 	strd	r3, r6, [sp, #56]	@ 0x38
 80005f8:	e9cd 4410 	strd	r4, r4, [sp, #64]	@ 0x40
 80005fc:	f000 fc14 	bl	8000e28 <HAL_GPIO_Init>
 8000600:	2310      	movs	r3, #16
 8000602:	484c      	ldr	r0, [pc, #304]	@ (8000734 <main+0x1c8>)
 8000604:	a90e      	add	r1, sp, #56	@ 0x38
 8000606:	e9cd 360e 	strd	r3, r6, [sp, #56]	@ 0x38
 800060a:	e9cd 4410 	strd	r4, r4, [sp, #64]	@ 0x40
 800060e:	f000 fc0b 	bl	8000e28 <HAL_GPIO_Init>
 8000612:	9403      	str	r4, [sp, #12]
 8000614:	6b2b      	ldr	r3, [r5, #48]	@ 0x30
 8000616:	f443 1300 	orr.w	r3, r3, #2097152	@ 0x200000
 800061a:	632b      	str	r3, [r5, #48]	@ 0x30
 800061c:	6b2b      	ldr	r3, [r5, #48]	@ 0x30
 800061e:	f403 1300 	and.w	r3, r3, #2097152	@ 0x200000
 8000622:	4622      	mov	r2, r4
 8000624:	4621      	mov	r1, r4
 8000626:	9303      	str	r3, [sp, #12]
 8000628:	200e      	movs	r0, #14
 800062a:	9b03      	ldr	r3, [sp, #12]
 800062c:	f000 f9de 	bl	80009ec <HAL_NVIC_SetPriority>
 8000630:	200e      	movs	r0, #14
 8000632:	f000 fa0d 	bl	8000a50 <HAL_NVIC_EnableIRQ>
 8000636:	4622      	mov	r2, r4
 8000638:	4621      	mov	r1, r4
 800063a:	200f      	movs	r0, #15
 800063c:	f000 f9d6 	bl	80009ec <HAL_NVIC_SetPriority>
 8000640:	200f      	movs	r0, #15
 8000642:	f000 fa05 	bl	8000a50 <HAL_NVIC_EnableIRQ>
 8000646:	483c      	ldr	r0, [pc, #240]	@ (8000738 <main+0x1cc>)
 8000648:	4a3c      	ldr	r2, [pc, #240]	@ (800073c <main+0x1d0>)
 800064a:	6284      	str	r4, [r0, #40]	@ 0x28
 800064c:	f44f 7382 	mov.w	r3, #260	@ 0x104
 8000650:	e9c0 2300 	strd	r2, r3, [r0]
 8000654:	f44f 7100 	mov.w	r1, #512	@ 0x200
 8000658:	2330      	movs	r3, #48	@ 0x30
 800065a:	e9c0 1306 	strd	r1, r3, [r0, #24]
 800065e:	230a      	movs	r3, #10
 8000660:	e9c0 4402 	strd	r4, r4, [r0, #8]
 8000664:	e9c0 4404 	strd	r4, r4, [r0, #16]
 8000668:	e9c0 4408 	strd	r4, r4, [r0, #32]
 800066c:	62c3      	str	r3, [r0, #44]	@ 0x2c
 800066e:	f000 ffff 	bl	8001670 <HAL_SPI_Init>
 8000672:	b108      	cbz	r0, 8000678 <main+0x10c>
 8000674:	b672      	cpsid	i
 8000676:	e7fe      	b.n	8000676 <main+0x10a>
 8000678:	f001 f97c 	bl	8001974 <MX_FATFS_Init>
 800067c:	4b30      	ldr	r3, [pc, #192]	@ (8000740 <main+0x1d4>)
 800067e:	ac08      	add	r4, sp, #32
 8000680:	f103 0518 	add.w	r5, r3, #24
 8000684:	6818      	ldr	r0, [r3, #0]
 8000686:	6859      	ldr	r1, [r3, #4]
 8000688:	4622      	mov	r2, r4
 800068a:	c203      	stmia	r2!, {r0, r1}
 800068c:	3308      	adds	r3, #8
 800068e:	42ab      	cmp	r3, r5
 8000690:	4614      	mov	r4, r2
 8000692:	d1f7      	bne.n	8000684 <main+0x118>
 8000694:	230a      	movs	r3, #10
 8000696:	492b      	ldr	r1, [pc, #172]	@ (8000744 <main+0x1d8>)
 8000698:	482b      	ldr	r0, [pc, #172]	@ (8000748 <main+0x1dc>)
 800069a:	f88d 3004 	strb.w	r3, [sp, #4]
 800069e:	2200      	movs	r2, #0
 80006a0:	f002 fd2a 	bl	80030f8 <f_mount>
 80006a4:	b148      	cbz	r0, 80006ba <main+0x14e>
 80006a6:	4c22      	ldr	r4, [pc, #136]	@ (8000730 <main+0x1c4>)
 80006a8:	4620      	mov	r0, r4
 80006aa:	2120      	movs	r1, #32
 80006ac:	f000 fc87 	bl	8000fbe <HAL_GPIO_TogglePin>
 80006b0:	f44f 70fa 	mov.w	r0, #500	@ 0x1f4
 80006b4:	f000 f974 	bl	80009a0 <HAL_Delay>
 80006b8:	e7f6      	b.n	80006a8 <main+0x13c>
 80006ba:	4924      	ldr	r1, [pc, #144]	@ (800074c <main+0x1e0>)
 80006bc:	2202      	movs	r2, #2
 80006be:	a80e      	add	r0, sp, #56	@ 0x38
 80006c0:	f002 fd42 	bl	8003148 <f_open>
 80006c4:	b148      	cbz	r0, 80006da <main+0x16e>
 80006c6:	4c1a      	ldr	r4, [pc, #104]	@ (8000730 <main+0x1c4>)
 80006c8:	4620      	mov	r0, r4
 80006ca:	2120      	movs	r1, #32
 80006cc:	f000 fc77 	bl	8000fbe <HAL_GPIO_TogglePin>
 80006d0:	f44f 70fa 	mov.w	r0, #500	@ 0x1f4
 80006d4:	f000 f964 	bl	80009a0 <HAL_Delay>
 80006d8:	e7f6      	b.n	80006c8 <main+0x15c>
 80006da:	9911      	ldr	r1, [sp, #68]	@ 0x44
 80006dc:	a80e      	add	r0, sp, #56	@ 0x38
 80006de:	f002 ff5a 	bl	8003596 <f_lseek>
 80006e2:	9b11      	ldr	r3, [sp, #68]	@ 0x44
 80006e4:	b98b      	cbnz	r3, 800070a <main+0x19e>
 80006e6:	ab02      	add	r3, sp, #8
 80006e8:	2218      	movs	r2, #24
 80006ea:	a908      	add	r1, sp, #32
 80006ec:	a80e      	add	r0, sp, #56	@ 0x38
 80006ee:	f002 fe2b 	bl	8003348 <f_write>
 80006f2:	a80e      	add	r0, sp, #56	@ 0x38
 80006f4:	f002 ff3e 	bl	8003574 <f_close>
 80006f8:	4c0d      	ldr	r4, [pc, #52]	@ (8000730 <main+0x1c4>)
 80006fa:	4620      	mov	r0, r4
 80006fc:	2120      	movs	r1, #32
 80006fe:	f000 fc5e 	bl	8000fbe <HAL_GPIO_TogglePin>
 8000702:	2064      	movs	r0, #100	@ 0x64
 8000704:	f000 f94c 	bl	80009a0 <HAL_Delay>
 8000708:	e7f7      	b.n	80006fa <main+0x18e>
 800070a:	ab02      	add	r3, sp, #8
 800070c:	2201      	movs	r2, #1
 800070e:	a901      	add	r1, sp, #4
 8000710:	a80e      	add	r0, sp, #56	@ 0x38
 8000712:	f002 fe19 	bl	8003348 <f_write>
 8000716:	ab02      	add	r3, sp, #8
 8000718:	2218      	movs	r2, #24
 800071a:	a908      	add	r1, sp, #32
 800071c:	a80e      	add	r0, sp, #56	@ 0x38
 800071e:	f002 fe13 	bl	8003348 <f_write>
 8000722:	9b11      	ldr	r3, [sp, #68]	@ 0x44
 8000724:	2b00      	cmp	r3, #0
 8000726:	d1e4      	bne.n	80006f2 <main+0x186>
 8000728:	e7dd      	b.n	80006e6 <main+0x17a>
 800072a:	bf00      	nop
 800072c:	40023800 	.word	0x40023800
 8000730:	40020000 	.word	0x40020000
 8000734:	40020800 	.word	0x40020800
 8000738:	20000100 	.word	0x20000100
 800073c:	40003800 	.word	0x40003800
 8000740:	08003949 	.word	0x08003949
 8000744:	20000390 	.word	0x20000390
 8000748:	2000015c 	.word	0x2000015c
 800074c:	08003940 	.word	0x08003940

08000750 <Error_Handler>:
 8000750:	b672      	cpsid	i
 8000752:	e7fe      	b.n	8000752 <Error_Handler+0x2>

08000754 <HAL_MspInit>:
 8000754:	b082      	sub	sp, #8
 8000756:	4b0c      	ldr	r3, [pc, #48]	@ (8000788 <HAL_MspInit+0x34>)
 8000758:	2100      	movs	r1, #0
 800075a:	9100      	str	r1, [sp, #0]
 800075c:	6c5a      	ldr	r2, [r3, #68]	@ 0x44
 800075e:	f442 4280 	orr.w	r2, r2, #16384	@ 0x4000
 8000762:	645a      	str	r2, [r3, #68]	@ 0x44
 8000764:	6c5a      	ldr	r2, [r3, #68]	@ 0x44
 8000766:	f402 4280 	and.w	r2, r2, #16384	@ 0x4000
 800076a:	9200      	str	r2, [sp, #0]
 800076c:	9a00      	ldr	r2, [sp, #0]
 800076e:	9101      	str	r1, [sp, #4]
 8000770:	6c1a      	ldr	r2, [r3, #64]	@ 0x40
 8000772:	f042 5280 	orr.w	r2, r2, #268435456	@ 0x10000000
 8000776:	641a      	str	r2, [r3, #64]	@ 0x40
 8000778:	6c1b      	ldr	r3, [r3, #64]	@ 0x40
 800077a:	f003 5380 	and.w	r3, r3, #268435456	@ 0x10000000
 800077e:	9301      	str	r3, [sp, #4]
 8000780:	9b01      	ldr	r3, [sp, #4]
 8000782:	b002      	add	sp, #8
 8000784:	4770      	bx	lr
 8000786:	bf00      	nop
 8000788:	40023800 	.word	0x40023800

0800078c <HAL_SPI_MspInit>:
 800078c:	b570      	push	{r4, r5, r6, lr}
 800078e:	4606      	mov	r6, r0
 8000790:	b088      	sub	sp, #32
 8000792:	2214      	movs	r2, #20
 8000794:	2100      	movs	r1, #0
 8000796:	a803      	add	r0, sp, #12
 8000798:	f003 f89a 	bl	80038d0 <memset>
 800079c:	6832      	ldr	r2, [r6, #0]
 800079e:	4b2b      	ldr	r3, [pc, #172]	@ (800084c <HAL_SPI_MspInit+0xc0>)
 80007a0:	429a      	cmp	r2, r3
 80007a2:	d151      	bne.n	8000848 <HAL_SPI_MspInit+0xbc>
 80007a4:	2500      	movs	r5, #0
 80007a6:	f503 3300 	add.w	r3, r3, #131072	@ 0x20000
 80007aa:	9501      	str	r5, [sp, #4]
 80007ac:	6c1a      	ldr	r2, [r3, #64]	@ 0x40
 80007ae:	4c28      	ldr	r4, [pc, #160]	@ (8000850 <HAL_SPI_MspInit+0xc4>)
 80007b0:	f442 4280 	orr.w	r2, r2, #16384	@ 0x4000
 80007b4:	641a      	str	r2, [r3, #64]	@ 0x40
 80007b6:	6c1a      	ldr	r2, [r3, #64]	@ 0x40
 80007b8:	f402 4280 	and.w	r2, r2, #16384	@ 0x4000
 80007bc:	9201      	str	r2, [sp, #4]
 80007be:	9a01      	ldr	r2, [sp, #4]
 80007c0:	9502      	str	r5, [sp, #8]
 80007c2:	6b1a      	ldr	r2, [r3, #48]	@ 0x30
 80007c4:	f042 0202 	orr.w	r2, r2, #2
 80007c8:	631a      	str	r2, [r3, #48]	@ 0x30
 80007ca:	6b1b      	ldr	r3, [r3, #48]	@ 0x30
 80007cc:	f003 0302 	and.w	r3, r3, #2
 80007d0:	9302      	str	r3, [sp, #8]
 80007d2:	9b02      	ldr	r3, [sp, #8]
 80007d4:	f44f 4160 	mov.w	r1, #57344	@ 0xe000
 80007d8:	2302      	movs	r3, #2
 80007da:	e9cd 1303 	strd	r1, r3, [sp, #12]
 80007de:	2003      	movs	r0, #3
 80007e0:	2305      	movs	r3, #5
 80007e2:	e9cd 0306 	strd	r0, r3, [sp, #24]
 80007e6:	a903      	add	r1, sp, #12
 80007e8:	481a      	ldr	r0, [pc, #104]	@ (8000854 <HAL_SPI_MspInit+0xc8>)
 80007ea:	f000 fb1d 	bl	8000e28 <HAL_GPIO_Init>
 80007ee:	4b1a      	ldr	r3, [pc, #104]	@ (8000858 <HAL_SPI_MspInit+0xcc>)
 80007f0:	4620      	mov	r0, r4
 80007f2:	e9c4 3500 	strd	r3, r5, [r4]
 80007f6:	f44f 6380 	mov.w	r3, #1024	@ 0x400
 80007fa:	e9c4 5502 	strd	r5, r5, [r4, #8]
 80007fe:	e9c4 3504 	strd	r3, r5, [r4, #16]
 8000802:	e9c4 5506 	strd	r5, r5, [r4, #24]
 8000806:	e9c4 5508 	strd	r5, r5, [r4, #32]
 800080a:	f000 f959 	bl	8000ac0 <HAL_DMA_Init>
 800080e:	b108      	cbz	r0, 8000814 <HAL_SPI_MspInit+0x88>
 8000810:	f7ff ff9e 	bl	8000750 <Error_Handler>
 8000814:	4a11      	ldr	r2, [pc, #68]	@ (800085c <HAL_SPI_MspInit+0xd0>)
 8000816:	64f4      	str	r4, [r6, #76]	@ 0x4c
 8000818:	63a6      	str	r6, [r4, #56]	@ 0x38
 800081a:	4c11      	ldr	r4, [pc, #68]	@ (8000860 <HAL_SPI_MspInit+0xd4>)
 800081c:	2300      	movs	r3, #0
 800081e:	e9c4 2300 	strd	r2, r3, [r4]
 8000822:	2240      	movs	r2, #64	@ 0x40
 8000824:	e9c4 2302 	strd	r2, r3, [r4, #8]
 8000828:	4620      	mov	r0, r4
 800082a:	f44f 6280 	mov.w	r2, #1024	@ 0x400
 800082e:	e9c4 2304 	strd	r2, r3, [r4, #16]
 8000832:	e9c4 3306 	strd	r3, r3, [r4, #24]
 8000836:	e9c4 3308 	strd	r3, r3, [r4, #32]
 800083a:	f000 f941 	bl	8000ac0 <HAL_DMA_Init>
 800083e:	b108      	cbz	r0, 8000844 <HAL_SPI_MspInit+0xb8>
 8000840:	f7ff ff86 	bl	8000750 <Error_Handler>
 8000844:	64b4      	str	r4, [r6, #72]	@ 0x48
 8000846:	63a6      	str	r6, [r4, #56]	@ 0x38
 8000848:	b008      	add	sp, #32
 800084a:	bd70      	pop	{r4, r5, r6, pc}
 800084c:	40003800 	.word	0x40003800
 8000850:	200000a0 	.word	0x200000a0
 8000854:	40020400 	.word	0x40020400
 8000858:	40026058 	.word	0x40026058
 800085c:	40026070 	.word	0x40026070
 8000860:	20000040 	.word	0x20000040

08000864 <NMI_Handler>:
 8000864:	b508      	push	{r3, lr}
 8000866:	f000 fe31 	bl	80014cc <HAL_RCC_NMI_IRQHandler>
 800086a:	e7fe      	b.n	800086a <NMI_Handler+0x6>

0800086c <HardFault_Handler>:
 800086c:	e7fe      	b.n	800086c <HardFault_Handler>

0800086e <MemManage_Handler>:
 800086e:	e7fe      	b.n	800086e <MemManage_Handler>

08000870 <BusFault_Handler>:
 8000870:	e7fe      	b.n	8000870 <BusFault_Handler>

08000872 <UsageFault_Handler>:
 8000872:	e7fe      	b.n	8000872 <UsageFault_Handler>

08000874 <SVC_Handler>:
 8000874:	4770      	bx	lr

08000876 <DebugMon_Handler>:
 8000876:	4770      	bx	lr

08000878 <PendSV_Handler>:
 8000878:	4770      	bx	lr

0800087a <SysTick_Handler>:
 800087a:	f000 b87f 	b.w	800097c <HAL_IncTick>
	...

08000880 <DMA1_Stream3_IRQHandler>:
 8000880:	4801      	ldr	r0, [pc, #4]	@ (8000888 <DMA1_Stream3_IRQHandler+0x8>)
 8000882:	f000 ba13 	b.w	8000cac <HAL_DMA_IRQHandler>
 8000886:	bf00      	nop
 8000888:	200000a0 	.word	0x200000a0

0800088c <DMA1_Stream4_IRQHandler>:
 800088c:	4801      	ldr	r0, [pc, #4]	@ (8000894 <DMA1_Stream4_IRQHandler+0x8>)
 800088e:	f000 ba0d 	b.w	8000cac <HAL_DMA_IRQHandler>
 8000892:	bf00      	nop
 8000894:	20000040 	.word	0x20000040

08000898 <Reset_Handler>:
 8000898:	f8df d034 	ldr.w	sp, [pc, #52]	@ 80008d0 <LoopFillZerobss+0xe>
 800089c:	f000 f826 	bl	80008ec <SystemInit>
 80008a0:	480c      	ldr	r0, [pc, #48]	@ (80008d4 <LoopFillZerobss+0x12>)
 80008a2:	490d      	ldr	r1, [pc, #52]	@ (80008d8 <LoopFillZerobss+0x16>)
 80008a4:	4a0d      	ldr	r2, [pc, #52]	@ (80008dc <LoopFillZerobss+0x1a>)
 80008a6:	2300      	movs	r3, #0
 80008a8:	e002      	b.n	80008b0 <LoopCopyDataInit>

080008aa <CopyDataInit>:
 80008aa:	58d4      	ldr	r4, [r2, r3]
 80008ac:	50c4      	str	r4, [r0, r3]
 80008ae:	3304      	adds	r3, #4

080008b0 <LoopCopyDataInit>:
 80008b0:	18c4      	adds	r4, r0, r3
 80008b2:	428c      	cmp	r4, r1
 80008b4:	d3f9      	bcc.n	80008aa <CopyDataInit>
 80008b6:	4a0a      	ldr	r2, [pc, #40]	@ (80008e0 <LoopFillZerobss+0x1e>)
 80008b8:	4c0a      	ldr	r4, [pc, #40]	@ (80008e4 <LoopFillZerobss+0x22>)
 80008ba:	2300      	movs	r3, #0
 80008bc:	e001      	b.n	80008c2 <LoopFillZerobss>

080008be <FillZerobss>:
 80008be:	6013      	str	r3, [r2, #0]
 80008c0:	3204      	adds	r2, #4

080008c2 <LoopFillZerobss>:
 80008c2:	42a2      	cmp	r2, r4
 80008c4:	d3fb      	bcc.n	80008be <FillZerobss>
 80008c6:	f003 f80b 	bl	80038e0 <__libc_init_array>
 80008ca:	f7ff fe4f 	bl	800056c <main>
 80008ce:	4770      	bx	lr
 80008d0:	20020000 	.word	0x20020000
 80008d4:	20000000 	.word	0x20000000
 80008d8:	20000024 	.word	0x20000024
 80008dc:	08003dd4 	.word	0x08003dd4
 80008e0:	20000024 	.word	0x20000024
 80008e4:	200005fc 	.word	0x200005fc

080008e8 <ADC_IRQHandler>:
 80008e8:	e7fe      	b.n	80008e8 <ADC_IRQHandler>
	...

080008ec <SystemInit>:
 80008ec:	4a03      	ldr	r2, [pc, #12]	@ (80008fc <SystemInit+0x10>)
 80008ee:	f8d2 3088 	ldr.w	r3, [r2, #136]	@ 0x88
 80008f2:	f443 0370 	orr.w	r3, r3, #15728640	@ 0xf00000
 80008f6:	f8c2 3088 	str.w	r3, [r2, #136]	@ 0x88
 80008fa:	4770      	bx	lr
 80008fc:	e000ed00 	.word	0xe000ed00

08000900 <HAL_InitTick>:
 8000900:	b538      	push	{r3, r4, r5, lr}
 8000902:	4b0e      	ldr	r3, [pc, #56]	@ (800093c <HAL_InitTick+0x3c>)
 8000904:	781a      	ldrb	r2, [r3, #0]
 8000906:	f44f 737a 	mov.w	r3, #1000	@ 0x3e8
 800090a:	fbb3 f3f2 	udiv	r3, r3, r2
 800090e:	4a0c      	ldr	r2, [pc, #48]	@ (8000940 <HAL_InitTick+0x40>)
 8000910:	4605      	mov	r5, r0
 8000912:	6810      	ldr	r0, [r2, #0]
 8000914:	fbb0 f0f3 	udiv	r0, r0, r3
 8000918:	f000 f8a8 	bl	8000a6c <HAL_SYSTICK_Config>
 800091c:	4604      	mov	r4, r0
 800091e:	b958      	cbnz	r0, 8000938 <HAL_InitTick+0x38>
 8000920:	2d0f      	cmp	r5, #15
 8000922:	d809      	bhi.n	8000938 <HAL_InitTick+0x38>
 8000924:	4602      	mov	r2, r0
 8000926:	4629      	mov	r1, r5
 8000928:	f04f 30ff 	mov.w	r0, #4294967295
 800092c:	f000 f85e 	bl	80009ec <HAL_NVIC_SetPriority>
 8000930:	4b04      	ldr	r3, [pc, #16]	@ (8000944 <HAL_InitTick+0x44>)
 8000932:	4620      	mov	r0, r4
 8000934:	601d      	str	r5, [r3, #0]
 8000936:	bd38      	pop	{r3, r4, r5, pc}
 8000938:	2001      	movs	r0, #1
 800093a:	e7fc      	b.n	8000936 <HAL_InitTick+0x36>
 800093c:	20000004 	.word	0x20000004
 8000940:	20000000 	.word	0x20000000
 8000944:	20000008 	.word	0x20000008

08000948 <HAL_Init>:
 8000948:	b508      	push	{r3, lr}
 800094a:	4b0b      	ldr	r3, [pc, #44]	@ (8000978 <HAL_Init+0x30>)
 800094c:	681a      	ldr	r2, [r3, #0]
 800094e:	f442 7200 	orr.w	r2, r2, #512	@ 0x200
 8000952:	601a      	str	r2, [r3, #0]
 8000954:	681a      	ldr	r2, [r3, #0]
 8000956:	f442 6280 	orr.w	r2, r2, #1024	@ 0x400
 800095a:	601a      	str	r2, [r3, #0]
 800095c:	681a      	ldr	r2, [r3, #0]
 800095e:	f442 7280 	orr.w	r2, r2, #256	@ 0x100
 8000962:	601a      	str	r2, [r3, #0]
 8000964:	2003      	movs	r0, #3
 8000966:	f000 f82f 	bl	80009c8 <HAL_NVIC_SetPriorityGrouping>
 800096a:	200f      	movs	r0, #15
 800096c:	f7ff ffc8 	bl	8000900 <HAL_InitTick>
 8000970:	f7ff fef0 	bl	8000754 <HAL_MspInit>
 8000974:	2000      	movs	r0, #0
 8000976:	bd08      	pop	{r3, pc}
 8000978:	40023c00 	.word	0x40023c00

0800097c <HAL_IncTick>:
 800097c:	4a03      	ldr	r2, [pc, #12]	@ (800098c <HAL_IncTick+0x10>)
 800097e:	4b04      	ldr	r3, [pc, #16]	@ (8000990 <HAL_IncTick+0x14>)
 8000980:	6811      	ldr	r1, [r2, #0]
 8000982:	781b      	ldrb	r3, [r3, #0]
 8000984:	440b      	add	r3, r1
 8000986:	6013      	str	r3, [r2, #0]
 8000988:	4770      	bx	lr
 800098a:	bf00      	nop
 800098c:	20000158 	.word	0x20000158
 8000990:	20000004 	.word	0x20000004

08000994 <HAL_GetTick>:
 8000994:	4b01      	ldr	r3, [pc, #4]	@ (800099c <HAL_GetTick+0x8>)
 8000996:	6818      	ldr	r0, [r3, #0]
 8000998:	4770      	bx	lr
 800099a:	bf00      	nop
 800099c:	20000158 	.word	0x20000158

080009a0 <HAL_Delay>:
 80009a0:	b538      	push	{r3, r4, r5, lr}
 80009a2:	4604      	mov	r4, r0
 80009a4:	f7ff fff6 	bl	8000994 <HAL_GetTick>
 80009a8:	1c63      	adds	r3, r4, #1
 80009aa:	bf1c      	itt	ne
 80009ac:	4b05      	ldrne	r3, [pc, #20]	@ (80009c4 <HAL_Delay+0x24>)
 80009ae:	781b      	ldrbne	r3, [r3, #0]
 80009b0:	4605      	mov	r5, r0
 80009b2:	bf18      	it	ne
 80009b4:	18e4      	addne	r4, r4, r3
 80009b6:	f7ff ffed 	bl	8000994 <HAL_GetTick>
 80009ba:	1b43      	subs	r3, r0, r5
 80009bc:	42a3      	cmp	r3, r4
 80009be:	d3fa      	bcc.n	80009b6 <HAL_Delay+0x16>
 80009c0:	bd38      	pop	{r3, r4, r5, pc}
 80009c2:	bf00      	nop
 80009c4:	20000004 	.word	0x20000004

080009c8 <HAL_NVIC_SetPriorityGrouping>:
 80009c8:	4907      	ldr	r1, [pc, #28]	@ (80009e8 <HAL_NVIC_SetPriorityGrouping+0x20>)
 80009ca:	68ca      	ldr	r2, [r1, #12]
 80009cc:	f422 62e0 	bic.w	r2, r2, #1792	@ 0x700
 80009d0:	0203      	lsls	r3, r0, #8
 80009d2:	0412      	lsls	r2, r2, #16
 80009d4:	f403 63e0 	and.w	r3, r3, #1792	@ 0x700
 80009d8:	0c12      	lsrs	r2, r2, #16
 80009da:	4313      	orrs	r3, r2
 80009dc:	f043 63bf 	orr.w	r3, r3, #100139008	@ 0x5f80000
 80009e0:	f443 3300 	orr.w	r3, r3, #131072	@ 0x20000
 80009e4:	60cb      	str	r3, [r1, #12]
 80009e6:	4770      	bx	lr
 80009e8:	e000ed00 	.word	0xe000ed00

080009ec <HAL_NVIC_SetPriority>:
 80009ec:	4b16      	ldr	r3, [pc, #88]	@ (8000a48 <HAL_NVIC_SetPriority+0x5c>)
 80009ee:	b530      	push	{r4, r5, lr}
 80009f0:	68dc      	ldr	r4, [r3, #12]
 80009f2:	f3c4 2402 	ubfx	r4, r4, #8, #3
 80009f6:	f1c4 0307 	rsb	r3, r4, #7
 80009fa:	1d25      	adds	r5, r4, #4
 80009fc:	2b04      	cmp	r3, #4
 80009fe:	bf28      	it	cs
 8000a00:	2304      	movcs	r3, #4
 8000a02:	2d06      	cmp	r5, #6
 8000a04:	f04f 35ff 	mov.w	r5, #4294967295
 8000a08:	bf8c      	ite	hi
 8000a0a:	3c03      	subhi	r4, #3
 8000a0c:	2400      	movls	r4, #0
 8000a0e:	fa05 f303 	lsl.w	r3, r5, r3
 8000a12:	ea21 0303 	bic.w	r3, r1, r3
 8000a16:	40a5      	lsls	r5, r4
 8000a18:	ea22 0205 	bic.w	r2, r2, r5
 8000a1c:	40a3      	lsls	r3, r4
 8000a1e:	2800      	cmp	r0, #0
 8000a20:	ea43 0302 	orr.w	r3, r3, r2
 8000a24:	bfac      	ite	ge
 8000a26:	f100 4060 	addge.w	r0, r0, #3758096384	@ 0xe0000000
 8000a2a:	4a08      	ldrlt	r2, [pc, #32]	@ (8000a4c <HAL_NVIC_SetPriority+0x60>)
 8000a2c:	ea4f 1303 	mov.w	r3, r3, lsl #4
 8000a30:	bfb8      	it	lt
 8000a32:	f000 000f 	andlt.w	r0, r0, #15
 8000a36:	b2db      	uxtb	r3, r3
 8000a38:	bfaa      	itet	ge
 8000a3a:	f500 4061 	addge.w	r0, r0, #57600	@ 0xe100
 8000a3e:	5413      	strblt	r3, [r2, r0]
 8000a40:	f880 3300 	strbge.w	r3, [r0, #768]	@ 0x300
 8000a44:	bd30      	pop	{r4, r5, pc}
 8000a46:	bf00      	nop
 8000a48:	e000ed00 	.word	0xe000ed00
 8000a4c:	e000ed14 	.word	0xe000ed14

08000a50 <HAL_NVIC_EnableIRQ>:
 8000a50:	2800      	cmp	r0, #0
 8000a52:	db07      	blt.n	8000a64 <HAL_NVIC_EnableIRQ+0x14>
 8000a54:	4a04      	ldr	r2, [pc, #16]	@ (8000a68 <HAL_NVIC_EnableIRQ+0x18>)
 8000a56:	0941      	lsrs	r1, r0, #5
 8000a58:	2301      	movs	r3, #1
 8000a5a:	f000 001f 	and.w	r0, r0, #31
 8000a5e:	4083      	lsls	r3, r0
 8000a60:	f842 3021 	str.w	r3, [r2, r1, lsl #2]
 8000a64:	4770      	bx	lr
 8000a66:	bf00      	nop
 8000a68:	e000e100 	.word	0xe000e100

08000a6c <HAL_SYSTICK_Config>:
 8000a6c:	3801      	subs	r0, #1
 8000a6e:	f1b0 7f80 	cmp.w	r0, #16777216	@ 0x1000000
 8000a72:	d20b      	bcs.n	8000a8c <HAL_SYSTICK_Config+0x20>
 8000a74:	f04f 23e0 	mov.w	r3, #3758153728	@ 0xe000e000
 8000a78:	4a05      	ldr	r2, [pc, #20]	@ (8000a90 <HAL_SYSTICK_Config+0x24>)
 8000a7a:	6158      	str	r0, [r3, #20]
 8000a7c:	21f0      	movs	r1, #240	@ 0xf0
 8000a7e:	f882 1023 	strb.w	r1, [r2, #35]	@ 0x23
 8000a82:	2000      	movs	r0, #0
 8000a84:	2207      	movs	r2, #7
 8000a86:	6198      	str	r0, [r3, #24]
 8000a88:	611a      	str	r2, [r3, #16]
 8000a8a:	4770      	bx	lr
 8000a8c:	2001      	movs	r0, #1
 8000a8e:	4770      	bx	lr
 8000a90:	e000ed00 	.word	0xe000ed00

08000a94 <DMA_CalcBaseAndBitshift>:
 8000a94:	6803      	ldr	r3, [r0, #0]
 8000a96:	b510      	push	{r4, lr}
 8000a98:	4c08      	ldr	r4, [pc, #32]	@ (8000abc <DMA_CalcBaseAndBitshift+0x28>)
 8000a9a:	4602      	mov	r2, r0
 8000a9c:	b2d9      	uxtb	r1, r3
 8000a9e:	3910      	subs	r1, #16
 8000aa0:	2018      	movs	r0, #24
 8000aa2:	fbb1 f0f0 	udiv	r0, r1, r0
 8000aa6:	5c20      	ldrb	r0, [r4, r0]
 8000aa8:	65d0      	str	r0, [r2, #92]	@ 0x5c
 8000aaa:	f423 707f 	bic.w	r0, r3, #1020	@ 0x3fc
 8000aae:	f020 0003 	bic.w	r0, r0, #3
 8000ab2:	295f      	cmp	r1, #95	@ 0x5f
 8000ab4:	bf88      	it	hi
 8000ab6:	3004      	addhi	r0, #4
 8000ab8:	6590      	str	r0, [r2, #88]	@ 0x58
 8000aba:	bd10      	pop	{r4, pc}
 8000abc:	08003971 	.word	0x08003971

08000ac0 <HAL_DMA_Init>:
 8000ac0:	b570      	push	{r4, r5, r6, lr}
 8000ac2:	4604      	mov	r4, r0
 8000ac4:	f7ff ff66 	bl	8000994 <HAL_GetTick>
 8000ac8:	4605      	mov	r5, r0
 8000aca:	2c00      	cmp	r4, #0
 8000acc:	d060      	beq.n	8000b90 <HAL_DMA_Init+0xd0>
 8000ace:	2302      	movs	r3, #2
 8000ad0:	f884 3035 	strb.w	r3, [r4, #53]	@ 0x35
 8000ad4:	6822      	ldr	r2, [r4, #0]
 8000ad6:	2300      	movs	r3, #0
 8000ad8:	f884 3034 	strb.w	r3, [r4, #52]	@ 0x34
 8000adc:	6813      	ldr	r3, [r2, #0]
 8000ade:	f023 0301 	bic.w	r3, r3, #1
 8000ae2:	6013      	str	r3, [r2, #0]
 8000ae4:	6822      	ldr	r2, [r4, #0]
 8000ae6:	6813      	ldr	r3, [r2, #0]
 8000ae8:	07d8      	lsls	r0, r3, #31
 8000aea:	d42e      	bmi.n	8000b4a <HAL_DMA_Init+0x8a>
 8000aec:	6813      	ldr	r3, [r2, #0]
 8000aee:	4832      	ldr	r0, [pc, #200]	@ (8000bb8 <HAL_DMA_Init+0xf8>)
 8000af0:	69a1      	ldr	r1, [r4, #24]
 8000af2:	4018      	ands	r0, r3
 8000af4:	e9d4 3501 	ldrd	r3, r5, [r4, #4]
 8000af8:	432b      	orrs	r3, r5
 8000afa:	68e5      	ldr	r5, [r4, #12]
 8000afc:	432b      	orrs	r3, r5
 8000afe:	6925      	ldr	r5, [r4, #16]
 8000b00:	432b      	orrs	r3, r5
 8000b02:	6965      	ldr	r5, [r4, #20]
 8000b04:	432b      	orrs	r3, r5
 8000b06:	69e5      	ldr	r5, [r4, #28]
 8000b08:	430b      	orrs	r3, r1
 8000b0a:	432b      	orrs	r3, r5
 8000b0c:	6a25      	ldr	r5, [r4, #32]
 8000b0e:	432b      	orrs	r3, r5
 8000b10:	4303      	orrs	r3, r0
 8000b12:	6a60      	ldr	r0, [r4, #36]	@ 0x24
 8000b14:	2804      	cmp	r0, #4
 8000b16:	bf02      	ittt	eq
 8000b18:	e9d4 560b 	ldrdeq	r5, r6, [r4, #44]	@ 0x2c
 8000b1c:	4335      	orreq	r5, r6
 8000b1e:	432b      	orreq	r3, r5
 8000b20:	6013      	str	r3, [r2, #0]
 8000b22:	6953      	ldr	r3, [r2, #20]
 8000b24:	2804      	cmp	r0, #4
 8000b26:	f023 0307 	bic.w	r3, r3, #7
 8000b2a:	ea43 0300 	orr.w	r3, r3, r0
 8000b2e:	d135      	bne.n	8000b9c <HAL_DMA_Init+0xdc>
 8000b30:	6aa0      	ldr	r0, [r4, #40]	@ 0x28
 8000b32:	6ae5      	ldr	r5, [r4, #44]	@ 0x2c
 8000b34:	4303      	orrs	r3, r0
 8000b36:	b38d      	cbz	r5, 8000b9c <HAL_DMA_Init+0xdc>
 8000b38:	b991      	cbnz	r1, 8000b60 <HAL_DMA_Init+0xa0>
 8000b3a:	2801      	cmp	r0, #1
 8000b3c:	d020      	beq.n	8000b80 <HAL_DMA_Init+0xc0>
 8000b3e:	f030 0102 	bics.w	r1, r0, #2
 8000b42:	d12b      	bne.n	8000b9c <HAL_DMA_Init+0xdc>
 8000b44:	01e9      	lsls	r1, r5, #7
 8000b46:	d529      	bpl.n	8000b9c <HAL_DMA_Init+0xdc>
 8000b48:	e01d      	b.n	8000b86 <HAL_DMA_Init+0xc6>
 8000b4a:	f7ff ff23 	bl	8000994 <HAL_GetTick>
 8000b4e:	1b40      	subs	r0, r0, r5
 8000b50:	2805      	cmp	r0, #5
 8000b52:	d9c7      	bls.n	8000ae4 <HAL_DMA_Init+0x24>
 8000b54:	2320      	movs	r3, #32
 8000b56:	2003      	movs	r0, #3
 8000b58:	6563      	str	r3, [r4, #84]	@ 0x54
 8000b5a:	f884 0035 	strb.w	r0, [r4, #53]	@ 0x35
 8000b5e:	bd70      	pop	{r4, r5, r6, pc}
 8000b60:	f5b1 5f00 	cmp.w	r1, #8192	@ 0x2000
 8000b64:	d116      	bne.n	8000b94 <HAL_DMA_Init+0xd4>
 8000b66:	2803      	cmp	r0, #3
 8000b68:	d818      	bhi.n	8000b9c <HAL_DMA_Init+0xdc>
 8000b6a:	a101      	add	r1, pc, #4	@ (adr r1, 8000b70 <HAL_DMA_Init+0xb0>)
 8000b6c:	f851 f020 	ldr.w	pc, [r1, r0, lsl #2]
 8000b70:	08000b87 	.word	0x08000b87
 8000b74:	08000b45 	.word	0x08000b45
 8000b78:	08000b87 	.word	0x08000b87
 8000b7c:	08000b81 	.word	0x08000b81
 8000b80:	f1b5 7fc0 	cmp.w	r5, #25165824	@ 0x1800000
 8000b84:	d10a      	bne.n	8000b9c <HAL_DMA_Init+0xdc>
 8000b86:	2340      	movs	r3, #64	@ 0x40
 8000b88:	6563      	str	r3, [r4, #84]	@ 0x54
 8000b8a:	2301      	movs	r3, #1
 8000b8c:	f884 3035 	strb.w	r3, [r4, #53]	@ 0x35
 8000b90:	2001      	movs	r0, #1
 8000b92:	e7e4      	b.n	8000b5e <HAL_DMA_Init+0x9e>
 8000b94:	2802      	cmp	r0, #2
 8000b96:	d9f6      	bls.n	8000b86 <HAL_DMA_Init+0xc6>
 8000b98:	2803      	cmp	r0, #3
 8000b9a:	d0d3      	beq.n	8000b44 <HAL_DMA_Init+0x84>
 8000b9c:	6153      	str	r3, [r2, #20]
 8000b9e:	4620      	mov	r0, r4
 8000ba0:	f7ff ff78 	bl	8000a94 <DMA_CalcBaseAndBitshift>
 8000ba4:	6de2      	ldr	r2, [r4, #92]	@ 0x5c
 8000ba6:	233f      	movs	r3, #63	@ 0x3f
 8000ba8:	4093      	lsls	r3, r2
 8000baa:	6083      	str	r3, [r0, #8]
 8000bac:	2000      	movs	r0, #0
 8000bae:	2301      	movs	r3, #1
 8000bb0:	6560      	str	r0, [r4, #84]	@ 0x54
 8000bb2:	f884 3035 	strb.w	r3, [r4, #53]	@ 0x35
 8000bb6:	e7d2      	b.n	8000b5e <HAL_DMA_Init+0x9e>
 8000bb8:	f010803f 	.word	0xf010803f

08000bbc <HAL_DMA_Start_IT>:
 8000bbc:	b570      	push	{r4, r5, r6, lr}
 8000bbe:	f890 4034 	ldrb.w	r4, [r0, #52]	@ 0x34
 8000bc2:	6d86      	ldr	r6, [r0, #88]	@ 0x58
 8000bc4:	2c01      	cmp	r4, #1
 8000bc6:	d030      	beq.n	8000c2a <HAL_DMA_Start_IT+0x6e>
 8000bc8:	2401      	movs	r4, #1
 8000bca:	f880 4034 	strb.w	r4, [r0, #52]	@ 0x34
 8000bce:	f890 4035 	ldrb.w	r4, [r0, #53]	@ 0x35
 8000bd2:	2c01      	cmp	r4, #1
 8000bd4:	f04f 0400 	mov.w	r4, #0
 8000bd8:	d125      	bne.n	8000c26 <HAL_DMA_Start_IT+0x6a>
 8000bda:	2502      	movs	r5, #2
 8000bdc:	f880 5035 	strb.w	r5, [r0, #53]	@ 0x35
 8000be0:	6544      	str	r4, [r0, #84]	@ 0x54
 8000be2:	6804      	ldr	r4, [r0, #0]
 8000be4:	6825      	ldr	r5, [r4, #0]
 8000be6:	f425 2580 	bic.w	r5, r5, #262144	@ 0x40000
 8000bea:	6025      	str	r5, [r4, #0]
 8000bec:	6063      	str	r3, [r4, #4]
 8000bee:	6883      	ldr	r3, [r0, #8]
 8000bf0:	2b40      	cmp	r3, #64	@ 0x40
 8000bf2:	bf0e      	itee	eq
 8000bf4:	60a2      	streq	r2, [r4, #8]
 8000bf6:	60a1      	strne	r1, [r4, #8]
 8000bf8:	60e2      	strne	r2, [r4, #12]
 8000bfa:	6dc2      	ldr	r2, [r0, #92]	@ 0x5c
 8000bfc:	bf08      	it	eq
 8000bfe:	60e1      	streq	r1, [r4, #12]
 8000c00:	233f      	movs	r3, #63	@ 0x3f
 8000c02:	4093      	lsls	r3, r2
 8000c04:	60b3      	str	r3, [r6, #8]
 8000c06:	6823      	ldr	r3, [r4, #0]
 8000c08:	f043 0316 	orr.w	r3, r3, #22
 8000c0c:	6023      	str	r3, [r4, #0]
 8000c0e:	6c03      	ldr	r3, [r0, #64]	@ 0x40
 8000c10:	b11b      	cbz	r3, 8000c1a <HAL_DMA_Start_IT+0x5e>
 8000c12:	6823      	ldr	r3, [r4, #0]
 8000c14:	f043 0308 	orr.w	r3, r3, #8
 8000c18:	6023      	str	r3, [r4, #0]
 8000c1a:	6823      	ldr	r3, [r4, #0]
 8000c1c:	f043 0301 	orr.w	r3, r3, #1
 8000c20:	6023      	str	r3, [r4, #0]
 8000c22:	2000      	movs	r0, #0
 8000c24:	bd70      	pop	{r4, r5, r6, pc}
 8000c26:	f880 4034 	strb.w	r4, [r0, #52]	@ 0x34
 8000c2a:	2002      	movs	r0, #2
 8000c2c:	e7fa      	b.n	8000c24 <HAL_DMA_Start_IT+0x68>

08000c2e <HAL_DMA_Abort>:
 8000c2e:	b570      	push	{r4, r5, r6, lr}
 8000c30:	4604      	mov	r4, r0
 8000c32:	6d86      	ldr	r6, [r0, #88]	@ 0x58
 8000c34:	f7ff feae 	bl	8000994 <HAL_GetTick>
 8000c38:	f894 3035 	ldrb.w	r3, [r4, #53]	@ 0x35
 8000c3c:	2b02      	cmp	r3, #2
 8000c3e:	4605      	mov	r5, r0
 8000c40:	d006      	beq.n	8000c50 <HAL_DMA_Abort+0x22>
 8000c42:	2380      	movs	r3, #128	@ 0x80
 8000c44:	6563      	str	r3, [r4, #84]	@ 0x54
 8000c46:	2001      	movs	r0, #1
 8000c48:	2300      	movs	r3, #0
 8000c4a:	f884 3034 	strb.w	r3, [r4, #52]	@ 0x34
 8000c4e:	bd70      	pop	{r4, r5, r6, pc}
 8000c50:	6823      	ldr	r3, [r4, #0]
 8000c52:	681a      	ldr	r2, [r3, #0]
 8000c54:	f022 0216 	bic.w	r2, r2, #22
 8000c58:	601a      	str	r2, [r3, #0]
 8000c5a:	695a      	ldr	r2, [r3, #20]
 8000c5c:	f022 0280 	bic.w	r2, r2, #128	@ 0x80
 8000c60:	615a      	str	r2, [r3, #20]
 8000c62:	6c22      	ldr	r2, [r4, #64]	@ 0x40
 8000c64:	b90a      	cbnz	r2, 8000c6a <HAL_DMA_Abort+0x3c>
 8000c66:	6ca2      	ldr	r2, [r4, #72]	@ 0x48
 8000c68:	b11a      	cbz	r2, 8000c72 <HAL_DMA_Abort+0x44>
 8000c6a:	681a      	ldr	r2, [r3, #0]
 8000c6c:	f022 0208 	bic.w	r2, r2, #8
 8000c70:	601a      	str	r2, [r3, #0]
 8000c72:	681a      	ldr	r2, [r3, #0]
 8000c74:	f022 0201 	bic.w	r2, r2, #1
 8000c78:	601a      	str	r2, [r3, #0]
 8000c7a:	6823      	ldr	r3, [r4, #0]
 8000c7c:	6818      	ldr	r0, [r3, #0]
 8000c7e:	f010 0001 	ands.w	r0, r0, #1
 8000c82:	d107      	bne.n	8000c94 <HAL_DMA_Abort+0x66>
 8000c84:	6de2      	ldr	r2, [r4, #92]	@ 0x5c
 8000c86:	233f      	movs	r3, #63	@ 0x3f
 8000c88:	4093      	lsls	r3, r2
 8000c8a:	60b3      	str	r3, [r6, #8]
 8000c8c:	2301      	movs	r3, #1
 8000c8e:	f884 3035 	strb.w	r3, [r4, #53]	@ 0x35
 8000c92:	e7d9      	b.n	8000c48 <HAL_DMA_Abort+0x1a>
 8000c94:	f7ff fe7e 	bl	8000994 <HAL_GetTick>
 8000c98:	1b40      	subs	r0, r0, r5
 8000c9a:	2805      	cmp	r0, #5
 8000c9c:	d9ed      	bls.n	8000c7a <HAL_DMA_Abort+0x4c>
 8000c9e:	2320      	movs	r3, #32
 8000ca0:	2003      	movs	r0, #3
 8000ca2:	6563      	str	r3, [r4, #84]	@ 0x54
 8000ca4:	f884 0035 	strb.w	r0, [r4, #53]	@ 0x35
 8000ca8:	e7ce      	b.n	8000c48 <HAL_DMA_Abort+0x1a>
	...

08000cac <HAL_DMA_IRQHandler>:
 8000cac:	b5f7      	push	{r0, r1, r2, r4, r5, r6, r7, lr}
 8000cae:	2300      	movs	r3, #0
 8000cb0:	9301      	str	r3, [sp, #4]
 8000cb2:	4b5c      	ldr	r3, [pc, #368]	@ (8000e24 <HAL_DMA_IRQHandler+0x178>)
 8000cb4:	6d85      	ldr	r5, [r0, #88]	@ 0x58
 8000cb6:	681f      	ldr	r7, [r3, #0]
 8000cb8:	6dc3      	ldr	r3, [r0, #92]	@ 0x5c
 8000cba:	682e      	ldr	r6, [r5, #0]
 8000cbc:	2208      	movs	r2, #8
 8000cbe:	409a      	lsls	r2, r3
 8000cc0:	4232      	tst	r2, r6
 8000cc2:	4604      	mov	r4, r0
 8000cc4:	d00c      	beq.n	8000ce0 <HAL_DMA_IRQHandler+0x34>
 8000cc6:	6801      	ldr	r1, [r0, #0]
 8000cc8:	6808      	ldr	r0, [r1, #0]
 8000cca:	0740      	lsls	r0, r0, #29
 8000ccc:	d508      	bpl.n	8000ce0 <HAL_DMA_IRQHandler+0x34>
 8000cce:	6808      	ldr	r0, [r1, #0]
 8000cd0:	f020 0004 	bic.w	r0, r0, #4
 8000cd4:	6008      	str	r0, [r1, #0]
 8000cd6:	60aa      	str	r2, [r5, #8]
 8000cd8:	6d62      	ldr	r2, [r4, #84]	@ 0x54
 8000cda:	f042 0201 	orr.w	r2, r2, #1
 8000cde:	6562      	str	r2, [r4, #84]	@ 0x54
 8000ce0:	2201      	movs	r2, #1
 8000ce2:	409a      	lsls	r2, r3
 8000ce4:	4232      	tst	r2, r6
 8000ce6:	d008      	beq.n	8000cfa <HAL_DMA_IRQHandler+0x4e>
 8000ce8:	6821      	ldr	r1, [r4, #0]
 8000cea:	6949      	ldr	r1, [r1, #20]
 8000cec:	0609      	lsls	r1, r1, #24
 8000cee:	bf41      	itttt	mi
 8000cf0:	60aa      	strmi	r2, [r5, #8]
 8000cf2:	6d62      	ldrmi	r2, [r4, #84]	@ 0x54
 8000cf4:	f042 0202 	orrmi.w	r2, r2, #2
 8000cf8:	6562      	strmi	r2, [r4, #84]	@ 0x54
 8000cfa:	2204      	movs	r2, #4
 8000cfc:	409a      	lsls	r2, r3
 8000cfe:	4232      	tst	r2, r6
 8000d00:	d008      	beq.n	8000d14 <HAL_DMA_IRQHandler+0x68>
 8000d02:	6821      	ldr	r1, [r4, #0]
 8000d04:	6809      	ldr	r1, [r1, #0]
 8000d06:	0788      	lsls	r0, r1, #30
 8000d08:	bf41      	itttt	mi
 8000d0a:	60aa      	strmi	r2, [r5, #8]
 8000d0c:	6d62      	ldrmi	r2, [r4, #84]	@ 0x54
 8000d0e:	f042 0204 	orrmi.w	r2, r2, #4
 8000d12:	6562      	strmi	r2, [r4, #84]	@ 0x54
 8000d14:	2210      	movs	r2, #16
 8000d16:	409a      	lsls	r2, r3
 8000d18:	4232      	tst	r2, r6
 8000d1a:	d010      	beq.n	8000d3e <HAL_DMA_IRQHandler+0x92>
 8000d1c:	6823      	ldr	r3, [r4, #0]
 8000d1e:	6819      	ldr	r1, [r3, #0]
 8000d20:	0709      	lsls	r1, r1, #28
 8000d22:	d50c      	bpl.n	8000d3e <HAL_DMA_IRQHandler+0x92>
 8000d24:	60aa      	str	r2, [r5, #8]
 8000d26:	681a      	ldr	r2, [r3, #0]
 8000d28:	0350      	lsls	r0, r2, #13
 8000d2a:	d537      	bpl.n	8000d9c <HAL_DMA_IRQHandler+0xf0>
 8000d2c:	681b      	ldr	r3, [r3, #0]
 8000d2e:	0319      	lsls	r1, r3, #12
 8000d30:	d401      	bmi.n	8000d36 <HAL_DMA_IRQHandler+0x8a>
 8000d32:	6c23      	ldr	r3, [r4, #64]	@ 0x40
 8000d34:	e000      	b.n	8000d38 <HAL_DMA_IRQHandler+0x8c>
 8000d36:	6ca3      	ldr	r3, [r4, #72]	@ 0x48
 8000d38:	b10b      	cbz	r3, 8000d3e <HAL_DMA_IRQHandler+0x92>
 8000d3a:	4620      	mov	r0, r4
 8000d3c:	4798      	blx	r3
 8000d3e:	6de1      	ldr	r1, [r4, #92]	@ 0x5c
 8000d40:	2220      	movs	r2, #32
 8000d42:	408a      	lsls	r2, r1
 8000d44:	4232      	tst	r2, r6
 8000d46:	d03a      	beq.n	8000dbe <HAL_DMA_IRQHandler+0x112>
 8000d48:	6823      	ldr	r3, [r4, #0]
 8000d4a:	6818      	ldr	r0, [r3, #0]
 8000d4c:	06c6      	lsls	r6, r0, #27
 8000d4e:	d536      	bpl.n	8000dbe <HAL_DMA_IRQHandler+0x112>
 8000d50:	60aa      	str	r2, [r5, #8]
 8000d52:	f894 2035 	ldrb.w	r2, [r4, #53]	@ 0x35
 8000d56:	2a05      	cmp	r2, #5
 8000d58:	681a      	ldr	r2, [r3, #0]
 8000d5a:	d127      	bne.n	8000dac <HAL_DMA_IRQHandler+0x100>
 8000d5c:	f022 0216 	bic.w	r2, r2, #22
 8000d60:	601a      	str	r2, [r3, #0]
 8000d62:	695a      	ldr	r2, [r3, #20]
 8000d64:	f022 0280 	bic.w	r2, r2, #128	@ 0x80
 8000d68:	615a      	str	r2, [r3, #20]
 8000d6a:	6c22      	ldr	r2, [r4, #64]	@ 0x40
 8000d6c:	b90a      	cbnz	r2, 8000d72 <HAL_DMA_IRQHandler+0xc6>
 8000d6e:	6ca2      	ldr	r2, [r4, #72]	@ 0x48
 8000d70:	b11a      	cbz	r2, 8000d7a <HAL_DMA_IRQHandler+0xce>
 8000d72:	681a      	ldr	r2, [r3, #0]
 8000d74:	f022 0208 	bic.w	r2, r2, #8
 8000d78:	601a      	str	r2, [r3, #0]
 8000d7a:	233f      	movs	r3, #63	@ 0x3f
 8000d7c:	408b      	lsls	r3, r1
 8000d7e:	60ab      	str	r3, [r5, #8]
 8000d80:	2301      	movs	r3, #1
 8000d82:	f884 3035 	strb.w	r3, [r4, #53]	@ 0x35
 8000d86:	2300      	movs	r3, #0
 8000d88:	f884 3034 	strb.w	r3, [r4, #52]	@ 0x34
 8000d8c:	6d23      	ldr	r3, [r4, #80]	@ 0x50
 8000d8e:	2b00      	cmp	r3, #0
 8000d90:	d045      	beq.n	8000e1e <HAL_DMA_IRQHandler+0x172>
 8000d92:	4620      	mov	r0, r4
 8000d94:	b003      	add	sp, #12
 8000d96:	e8bd 40f0 	ldmia.w	sp!, {r4, r5, r6, r7, lr}
 8000d9a:	4718      	bx	r3
 8000d9c:	681a      	ldr	r2, [r3, #0]
 8000d9e:	05d2      	lsls	r2, r2, #23
 8000da0:	bf5e      	ittt	pl
 8000da2:	681a      	ldrpl	r2, [r3, #0]
 8000da4:	f022 0208 	bicpl.w	r2, r2, #8
 8000da8:	601a      	strpl	r2, [r3, #0]
 8000daa:	e7c2      	b.n	8000d32 <HAL_DMA_IRQHandler+0x86>
 8000dac:	0350      	lsls	r0, r2, #13
 8000dae:	d527      	bpl.n	8000e00 <HAL_DMA_IRQHandler+0x154>
 8000db0:	681b      	ldr	r3, [r3, #0]
 8000db2:	0319      	lsls	r1, r3, #12
 8000db4:	d431      	bmi.n	8000e1a <HAL_DMA_IRQHandler+0x16e>
 8000db6:	6c63      	ldr	r3, [r4, #68]	@ 0x44
 8000db8:	b10b      	cbz	r3, 8000dbe <HAL_DMA_IRQHandler+0x112>
 8000dba:	4620      	mov	r0, r4
 8000dbc:	4798      	blx	r3
 8000dbe:	6d63      	ldr	r3, [r4, #84]	@ 0x54
 8000dc0:	b36b      	cbz	r3, 8000e1e <HAL_DMA_IRQHandler+0x172>
 8000dc2:	6d63      	ldr	r3, [r4, #84]	@ 0x54
 8000dc4:	07da      	lsls	r2, r3, #31
 8000dc6:	d519      	bpl.n	8000dfc <HAL_DMA_IRQHandler+0x150>
 8000dc8:	6822      	ldr	r2, [r4, #0]
 8000dca:	f44f 5316 	mov.w	r3, #9600	@ 0x2580
 8000dce:	fbb7 f7f3 	udiv	r7, r7, r3
 8000dd2:	2305      	movs	r3, #5
 8000dd4:	f884 3035 	strb.w	r3, [r4, #53]	@ 0x35
 8000dd8:	6813      	ldr	r3, [r2, #0]
 8000dda:	f023 0301 	bic.w	r3, r3, #1
 8000dde:	6013      	str	r3, [r2, #0]
 8000de0:	9b01      	ldr	r3, [sp, #4]
 8000de2:	3301      	adds	r3, #1
 8000de4:	42bb      	cmp	r3, r7
 8000de6:	9301      	str	r3, [sp, #4]
 8000de8:	d802      	bhi.n	8000df0 <HAL_DMA_IRQHandler+0x144>
 8000dea:	6813      	ldr	r3, [r2, #0]
 8000dec:	07db      	lsls	r3, r3, #31
 8000dee:	d4f7      	bmi.n	8000de0 <HAL_DMA_IRQHandler+0x134>
 8000df0:	2301      	movs	r3, #1
 8000df2:	f884 3035 	strb.w	r3, [r4, #53]	@ 0x35
 8000df6:	2300      	movs	r3, #0
 8000df8:	f884 3034 	strb.w	r3, [r4, #52]	@ 0x34
 8000dfc:	6ce3      	ldr	r3, [r4, #76]	@ 0x4c
 8000dfe:	e7c6      	b.n	8000d8e <HAL_DMA_IRQHandler+0xe2>
 8000e00:	681a      	ldr	r2, [r3, #0]
 8000e02:	f412 7280 	ands.w	r2, r2, #256	@ 0x100
 8000e06:	d108      	bne.n	8000e1a <HAL_DMA_IRQHandler+0x16e>
 8000e08:	6819      	ldr	r1, [r3, #0]
 8000e0a:	f021 0110 	bic.w	r1, r1, #16
 8000e0e:	6019      	str	r1, [r3, #0]
 8000e10:	2301      	movs	r3, #1
 8000e12:	f884 3035 	strb.w	r3, [r4, #53]	@ 0x35
 8000e16:	f884 2034 	strb.w	r2, [r4, #52]	@ 0x34
 8000e1a:	6be3      	ldr	r3, [r4, #60]	@ 0x3c
 8000e1c:	e7cc      	b.n	8000db8 <HAL_DMA_IRQHandler+0x10c>
 8000e1e:	b003      	add	sp, #12
 8000e20:	bdf0      	pop	{r4, r5, r6, r7, pc}
 8000e22:	bf00      	nop
 8000e24:	20000000 	.word	0x20000000

08000e28 <HAL_GPIO_Init>:
 8000e28:	e92d 4ff7 	stmdb	sp!, {r0, r1, r2, r4, r5, r6, r7, r8, r9, sl, fp, lr}
 8000e2c:	f8df 9180 	ldr.w	r9, [pc, #384]	@ 8000fb0 <HAL_GPIO_Init+0x188>
 8000e30:	4a5d      	ldr	r2, [pc, #372]	@ (8000fa8 <HAL_GPIO_Init+0x180>)
 8000e32:	2300      	movs	r3, #0
 8000e34:	680d      	ldr	r5, [r1, #0]
 8000e36:	2401      	movs	r4, #1
 8000e38:	409c      	lsls	r4, r3
 8000e3a:	ea04 0605 	and.w	r6, r4, r5
 8000e3e:	43ac      	bics	r4, r5
 8000e40:	f040 80a3 	bne.w	8000f8a <HAL_GPIO_Init+0x162>
 8000e44:	684d      	ldr	r5, [r1, #4]
 8000e46:	2703      	movs	r7, #3
 8000e48:	f005 0403 	and.w	r4, r5, #3
 8000e4c:	ea4f 0843 	mov.w	r8, r3, lsl #1
 8000e50:	fa07 fc08 	lsl.w	ip, r7, r8
 8000e54:	1e67      	subs	r7, r4, #1
 8000e56:	2f01      	cmp	r7, #1
 8000e58:	ea6f 0c0c 	mvn.w	ip, ip
 8000e5c:	d834      	bhi.n	8000ec8 <HAL_GPIO_Init+0xa0>
 8000e5e:	6887      	ldr	r7, [r0, #8]
 8000e60:	ea07 0e0c 	and.w	lr, r7, ip
 8000e64:	68cf      	ldr	r7, [r1, #12]
 8000e66:	fa07 f708 	lsl.w	r7, r7, r8
 8000e6a:	ea47 070e 	orr.w	r7, r7, lr
 8000e6e:	6087      	str	r7, [r0, #8]
 8000e70:	6847      	ldr	r7, [r0, #4]
 8000e72:	ea27 0e06 	bic.w	lr, r7, r6
 8000e76:	f3c5 1700 	ubfx	r7, r5, #4, #1
 8000e7a:	409f      	lsls	r7, r3
 8000e7c:	ea47 070e 	orr.w	r7, r7, lr
 8000e80:	6047      	str	r7, [r0, #4]
 8000e82:	68c7      	ldr	r7, [r0, #12]
 8000e84:	ea07 0e0c 	and.w	lr, r7, ip
 8000e88:	688f      	ldr	r7, [r1, #8]
 8000e8a:	fa07 f708 	lsl.w	r7, r7, r8
 8000e8e:	ea47 070e 	orr.w	r7, r7, lr
 8000e92:	2c02      	cmp	r4, #2
 8000e94:	60c7      	str	r7, [r0, #12]
 8000e96:	d119      	bne.n	8000ecc <HAL_GPIO_Init+0xa4>
 8000e98:	ea4f 0ad3 	mov.w	sl, r3, lsr #3
 8000e9c:	eb00 0a8a 	add.w	sl, r0, sl, lsl #2
 8000ea0:	f003 0b07 	and.w	fp, r3, #7
 8000ea4:	f8da 7020 	ldr.w	r7, [sl, #32]
 8000ea8:	ea4f 0b8b 	mov.w	fp, fp, lsl #2
 8000eac:	f04f 0e0f 	mov.w	lr, #15
 8000eb0:	fa0e fe0b 	lsl.w	lr, lr, fp
 8000eb4:	ea27 0e0e 	bic.w	lr, r7, lr
 8000eb8:	690f      	ldr	r7, [r1, #16]
 8000eba:	fa07 f70b 	lsl.w	r7, r7, fp
 8000ebe:	ea47 070e 	orr.w	r7, r7, lr
 8000ec2:	f8ca 7020 	str.w	r7, [sl, #32]
 8000ec6:	e001      	b.n	8000ecc <HAL_GPIO_Init+0xa4>
 8000ec8:	2c03      	cmp	r4, #3
 8000eca:	d1da      	bne.n	8000e82 <HAL_GPIO_Init+0x5a>
 8000ecc:	6807      	ldr	r7, [r0, #0]
 8000ece:	fa04 f408 	lsl.w	r4, r4, r8
 8000ed2:	ea07 070c 	and.w	r7, r7, ip
 8000ed6:	433c      	orrs	r4, r7
 8000ed8:	f415 3f40 	tst.w	r5, #196608	@ 0x30000
 8000edc:	6004      	str	r4, [r0, #0]
 8000ede:	d054      	beq.n	8000f8a <HAL_GPIO_Init+0x162>
 8000ee0:	2400      	movs	r4, #0
 8000ee2:	9401      	str	r4, [sp, #4]
 8000ee4:	f8d9 4044 	ldr.w	r4, [r9, #68]	@ 0x44
 8000ee8:	f444 4480 	orr.w	r4, r4, #16384	@ 0x4000
 8000eec:	f8c9 4044 	str.w	r4, [r9, #68]	@ 0x44
 8000ef0:	f8d9 4044 	ldr.w	r4, [r9, #68]	@ 0x44
 8000ef4:	f023 0703 	bic.w	r7, r3, #3
 8000ef8:	f107 4780 	add.w	r7, r7, #1073741824	@ 0x40000000
 8000efc:	f404 4480 	and.w	r4, r4, #16384	@ 0x4000
 8000f00:	f507 379c 	add.w	r7, r7, #79872	@ 0x13800
 8000f04:	9401      	str	r4, [sp, #4]
 8000f06:	f003 0c03 	and.w	ip, r3, #3
 8000f0a:	9c01      	ldr	r4, [sp, #4]
 8000f0c:	f8d7 e008 	ldr.w	lr, [r7, #8]
 8000f10:	ea4f 0c8c 	mov.w	ip, ip, lsl #2
 8000f14:	240f      	movs	r4, #15
 8000f16:	fa04 f40c 	lsl.w	r4, r4, ip
 8000f1a:	ea2e 0e04 	bic.w	lr, lr, r4
 8000f1e:	4c23      	ldr	r4, [pc, #140]	@ (8000fac <HAL_GPIO_Init+0x184>)
 8000f20:	42a0      	cmp	r0, r4
 8000f22:	d039      	beq.n	8000f98 <HAL_GPIO_Init+0x170>
 8000f24:	f504 6480 	add.w	r4, r4, #1024	@ 0x400
 8000f28:	42a0      	cmp	r0, r4
 8000f2a:	d037      	beq.n	8000f9c <HAL_GPIO_Init+0x174>
 8000f2c:	f504 6480 	add.w	r4, r4, #1024	@ 0x400
 8000f30:	42a0      	cmp	r0, r4
 8000f32:	d035      	beq.n	8000fa0 <HAL_GPIO_Init+0x178>
 8000f34:	f504 6480 	add.w	r4, r4, #1024	@ 0x400
 8000f38:	42a0      	cmp	r0, r4
 8000f3a:	d033      	beq.n	8000fa4 <HAL_GPIO_Init+0x17c>
 8000f3c:	f504 6480 	add.w	r4, r4, #1024	@ 0x400
 8000f40:	42a0      	cmp	r0, r4
 8000f42:	bf14      	ite	ne
 8000f44:	2407      	movne	r4, #7
 8000f46:	2404      	moveq	r4, #4
 8000f48:	fa04 f40c 	lsl.w	r4, r4, ip
 8000f4c:	ea44 040e 	orr.w	r4, r4, lr
 8000f50:	60bc      	str	r4, [r7, #8]
 8000f52:	6894      	ldr	r4, [r2, #8]
 8000f54:	43f7      	mvns	r7, r6
 8000f56:	f415 1f80 	tst.w	r5, #1048576	@ 0x100000
 8000f5a:	bf0c      	ite	eq
 8000f5c:	403c      	andeq	r4, r7
 8000f5e:	4334      	orrne	r4, r6
 8000f60:	6094      	str	r4, [r2, #8]
 8000f62:	68d4      	ldr	r4, [r2, #12]
 8000f64:	f415 1f00 	tst.w	r5, #2097152	@ 0x200000
 8000f68:	bf0c      	ite	eq
 8000f6a:	403c      	andeq	r4, r7
 8000f6c:	4334      	orrne	r4, r6
 8000f6e:	60d4      	str	r4, [r2, #12]
 8000f70:	6854      	ldr	r4, [r2, #4]
 8000f72:	f415 3f00 	tst.w	r5, #131072	@ 0x20000
 8000f76:	bf0c      	ite	eq
 8000f78:	403c      	andeq	r4, r7
 8000f7a:	4334      	orrne	r4, r6
 8000f7c:	6054      	str	r4, [r2, #4]
 8000f7e:	6814      	ldr	r4, [r2, #0]
 8000f80:	03ed      	lsls	r5, r5, #15
 8000f82:	bf54      	ite	pl
 8000f84:	403c      	andpl	r4, r7
 8000f86:	4334      	orrmi	r4, r6
 8000f88:	6014      	str	r4, [r2, #0]
 8000f8a:	3301      	adds	r3, #1
 8000f8c:	2b10      	cmp	r3, #16
 8000f8e:	f47f af51 	bne.w	8000e34 <HAL_GPIO_Init+0xc>
 8000f92:	b003      	add	sp, #12
 8000f94:	e8bd 8ff0 	ldmia.w	sp!, {r4, r5, r6, r7, r8, r9, sl, fp, pc}
 8000f98:	2400      	movs	r4, #0
 8000f9a:	e7d5      	b.n	8000f48 <HAL_GPIO_Init+0x120>
 8000f9c:	2401      	movs	r4, #1
 8000f9e:	e7d3      	b.n	8000f48 <HAL_GPIO_Init+0x120>
 8000fa0:	2402      	movs	r4, #2
 8000fa2:	e7d1      	b.n	8000f48 <HAL_GPIO_Init+0x120>
 8000fa4:	2403      	movs	r4, #3
 8000fa6:	e7cf      	b.n	8000f48 <HAL_GPIO_Init+0x120>
 8000fa8:	40013c00 	.word	0x40013c00
 8000fac:	40020000 	.word	0x40020000
 8000fb0:	40023800 	.word	0x40023800

08000fb4 <HAL_GPIO_WritePin>:
 8000fb4:	b10a      	cbz	r2, 8000fba <HAL_GPIO_WritePin+0x6>
 8000fb6:	6181      	str	r1, [r0, #24]
 8000fb8:	4770      	bx	lr
 8000fba:	0409      	lsls	r1, r1, #16
 8000fbc:	e7fb      	b.n	8000fb6 <HAL_GPIO_WritePin+0x2>

08000fbe <HAL_GPIO_TogglePin>:
 8000fbe:	6943      	ldr	r3, [r0, #20]
 8000fc0:	ea01 0203 	and.w	r2, r1, r3
 8000fc4:	ea21 0103 	bic.w	r1, r1, r3
 8000fc8:	ea41 4102 	orr.w	r1, r1, r2, lsl #16
 8000fcc:	6181      	str	r1, [r0, #24]
 8000fce:	4770      	bx	lr

08000fd0 <HAL_RCC_OscConfig>:
 8000fd0:	e92d 41f3 	stmdb	sp!, {r0, r1, r4, r5, r6, r7, r8, lr}
 8000fd4:	4604      	mov	r4, r0
 8000fd6:	b340      	cbz	r0, 800102a <HAL_RCC_OscConfig+0x5a>
 8000fd8:	6803      	ldr	r3, [r0, #0]
 8000fda:	07de      	lsls	r6, r3, #31
 8000fdc:	d410      	bmi.n	8001000 <HAL_RCC_OscConfig+0x30>
 8000fde:	6823      	ldr	r3, [r4, #0]
 8000fe0:	079d      	lsls	r5, r3, #30
 8000fe2:	d45b      	bmi.n	800109c <HAL_RCC_OscConfig+0xcc>
 8000fe4:	6823      	ldr	r3, [r4, #0]
 8000fe6:	0719      	lsls	r1, r3, #28
 8000fe8:	f100 809d 	bmi.w	8001126 <HAL_RCC_OscConfig+0x156>
 8000fec:	6823      	ldr	r3, [r4, #0]
 8000fee:	075a      	lsls	r2, r3, #29
 8000ff0:	f100 80bd 	bmi.w	800116e <HAL_RCC_OscConfig+0x19e>
 8000ff4:	69a3      	ldr	r3, [r4, #24]
 8000ff6:	2b00      	cmp	r3, #0
 8000ff8:	f040 8124 	bne.w	8001244 <HAL_RCC_OscConfig+0x274>
 8000ffc:	2000      	movs	r0, #0
 8000ffe:	e02c      	b.n	800105a <HAL_RCC_OscConfig+0x8a>
 8001000:	4b8d      	ldr	r3, [pc, #564]	@ (8001238 <HAL_RCC_OscConfig+0x268>)
 8001002:	689a      	ldr	r2, [r3, #8]
 8001004:	f002 020c 	and.w	r2, r2, #12
 8001008:	2a04      	cmp	r2, #4
 800100a:	d007      	beq.n	800101c <HAL_RCC_OscConfig+0x4c>
 800100c:	689a      	ldr	r2, [r3, #8]
 800100e:	f002 020c 	and.w	r2, r2, #12
 8001012:	2a08      	cmp	r2, #8
 8001014:	d10b      	bne.n	800102e <HAL_RCC_OscConfig+0x5e>
 8001016:	685b      	ldr	r3, [r3, #4]
 8001018:	0259      	lsls	r1, r3, #9
 800101a:	d508      	bpl.n	800102e <HAL_RCC_OscConfig+0x5e>
 800101c:	4b86      	ldr	r3, [pc, #536]	@ (8001238 <HAL_RCC_OscConfig+0x268>)
 800101e:	681b      	ldr	r3, [r3, #0]
 8001020:	039a      	lsls	r2, r3, #14
 8001022:	d5dc      	bpl.n	8000fde <HAL_RCC_OscConfig+0xe>
 8001024:	6863      	ldr	r3, [r4, #4]
 8001026:	2b00      	cmp	r3, #0
 8001028:	d1d9      	bne.n	8000fde <HAL_RCC_OscConfig+0xe>
 800102a:	2001      	movs	r0, #1
 800102c:	e015      	b.n	800105a <HAL_RCC_OscConfig+0x8a>
 800102e:	6863      	ldr	r3, [r4, #4]
 8001030:	4d81      	ldr	r5, [pc, #516]	@ (8001238 <HAL_RCC_OscConfig+0x268>)
 8001032:	f5b3 3f80 	cmp.w	r3, #65536	@ 0x10000
 8001036:	d113      	bne.n	8001060 <HAL_RCC_OscConfig+0x90>
 8001038:	682b      	ldr	r3, [r5, #0]
 800103a:	f443 3380 	orr.w	r3, r3, #65536	@ 0x10000
 800103e:	602b      	str	r3, [r5, #0]
 8001040:	f7ff fca8 	bl	8000994 <HAL_GetTick>
 8001044:	4e7c      	ldr	r6, [pc, #496]	@ (8001238 <HAL_RCC_OscConfig+0x268>)
 8001046:	4605      	mov	r5, r0
 8001048:	6833      	ldr	r3, [r6, #0]
 800104a:	039b      	lsls	r3, r3, #14
 800104c:	d4c7      	bmi.n	8000fde <HAL_RCC_OscConfig+0xe>
 800104e:	f7ff fca1 	bl	8000994 <HAL_GetTick>
 8001052:	1b40      	subs	r0, r0, r5
 8001054:	2864      	cmp	r0, #100	@ 0x64
 8001056:	d9f7      	bls.n	8001048 <HAL_RCC_OscConfig+0x78>
 8001058:	2003      	movs	r0, #3
 800105a:	b002      	add	sp, #8
 800105c:	e8bd 81f0 	ldmia.w	sp!, {r4, r5, r6, r7, r8, pc}
 8001060:	f5b3 2fa0 	cmp.w	r3, #327680	@ 0x50000
 8001064:	d104      	bne.n	8001070 <HAL_RCC_OscConfig+0xa0>
 8001066:	682b      	ldr	r3, [r5, #0]
 8001068:	f443 2380 	orr.w	r3, r3, #262144	@ 0x40000
 800106c:	602b      	str	r3, [r5, #0]
 800106e:	e7e3      	b.n	8001038 <HAL_RCC_OscConfig+0x68>
 8001070:	682a      	ldr	r2, [r5, #0]
 8001072:	f422 3280 	bic.w	r2, r2, #65536	@ 0x10000
 8001076:	602a      	str	r2, [r5, #0]
 8001078:	682a      	ldr	r2, [r5, #0]
 800107a:	f422 2280 	bic.w	r2, r2, #262144	@ 0x40000
 800107e:	602a      	str	r2, [r5, #0]
 8001080:	2b00      	cmp	r3, #0
 8001082:	d1dd      	bne.n	8001040 <HAL_RCC_OscConfig+0x70>
 8001084:	f7ff fc86 	bl	8000994 <HAL_GetTick>
 8001088:	4606      	mov	r6, r0
 800108a:	682b      	ldr	r3, [r5, #0]
 800108c:	039f      	lsls	r7, r3, #14
 800108e:	d5a6      	bpl.n	8000fde <HAL_RCC_OscConfig+0xe>
 8001090:	f7ff fc80 	bl	8000994 <HAL_GetTick>
 8001094:	1b80      	subs	r0, r0, r6
 8001096:	2864      	cmp	r0, #100	@ 0x64
 8001098:	d9f7      	bls.n	800108a <HAL_RCC_OscConfig+0xba>
 800109a:	e7dd      	b.n	8001058 <HAL_RCC_OscConfig+0x88>
 800109c:	4b66      	ldr	r3, [pc, #408]	@ (8001238 <HAL_RCC_OscConfig+0x268>)
 800109e:	689a      	ldr	r2, [r3, #8]
 80010a0:	f012 0f0c 	tst.w	r2, #12
 80010a4:	d007      	beq.n	80010b6 <HAL_RCC_OscConfig+0xe6>
 80010a6:	689a      	ldr	r2, [r3, #8]
 80010a8:	f002 020c 	and.w	r2, r2, #12
 80010ac:	2a08      	cmp	r2, #8
 80010ae:	d111      	bne.n	80010d4 <HAL_RCC_OscConfig+0x104>
 80010b0:	685b      	ldr	r3, [r3, #4]
 80010b2:	025d      	lsls	r5, r3, #9
 80010b4:	d40e      	bmi.n	80010d4 <HAL_RCC_OscConfig+0x104>
 80010b6:	4a60      	ldr	r2, [pc, #384]	@ (8001238 <HAL_RCC_OscConfig+0x268>)
 80010b8:	6813      	ldr	r3, [r2, #0]
 80010ba:	0799      	lsls	r1, r3, #30
 80010bc:	d502      	bpl.n	80010c4 <HAL_RCC_OscConfig+0xf4>
 80010be:	68e3      	ldr	r3, [r4, #12]
 80010c0:	2b01      	cmp	r3, #1
 80010c2:	d1b2      	bne.n	800102a <HAL_RCC_OscConfig+0x5a>
 80010c4:	6813      	ldr	r3, [r2, #0]
 80010c6:	6921      	ldr	r1, [r4, #16]
 80010c8:	f023 03f8 	bic.w	r3, r3, #248	@ 0xf8
 80010cc:	ea43 03c1 	orr.w	r3, r3, r1, lsl #3
 80010d0:	6013      	str	r3, [r2, #0]
 80010d2:	e787      	b.n	8000fe4 <HAL_RCC_OscConfig+0x14>
 80010d4:	68e2      	ldr	r2, [r4, #12]
 80010d6:	4b59      	ldr	r3, [pc, #356]	@ (800123c <HAL_RCC_OscConfig+0x26c>)
 80010d8:	b1b2      	cbz	r2, 8001108 <HAL_RCC_OscConfig+0x138>
 80010da:	2201      	movs	r2, #1
 80010dc:	601a      	str	r2, [r3, #0]
 80010de:	f7ff fc59 	bl	8000994 <HAL_GetTick>
 80010e2:	4d55      	ldr	r5, [pc, #340]	@ (8001238 <HAL_RCC_OscConfig+0x268>)
 80010e4:	4606      	mov	r6, r0
 80010e6:	682b      	ldr	r3, [r5, #0]
 80010e8:	079b      	lsls	r3, r3, #30
 80010ea:	d507      	bpl.n	80010fc <HAL_RCC_OscConfig+0x12c>
 80010ec:	682b      	ldr	r3, [r5, #0]
 80010ee:	6922      	ldr	r2, [r4, #16]
 80010f0:	f023 03f8 	bic.w	r3, r3, #248	@ 0xf8
 80010f4:	ea43 03c2 	orr.w	r3, r3, r2, lsl #3
 80010f8:	602b      	str	r3, [r5, #0]
 80010fa:	e773      	b.n	8000fe4 <HAL_RCC_OscConfig+0x14>
 80010fc:	f7ff fc4a 	bl	8000994 <HAL_GetTick>
 8001100:	1b80      	subs	r0, r0, r6
 8001102:	2802      	cmp	r0, #2
 8001104:	d9ef      	bls.n	80010e6 <HAL_RCC_OscConfig+0x116>
 8001106:	e7a7      	b.n	8001058 <HAL_RCC_OscConfig+0x88>
 8001108:	601a      	str	r2, [r3, #0]
 800110a:	f7ff fc43 	bl	8000994 <HAL_GetTick>
 800110e:	4e4a      	ldr	r6, [pc, #296]	@ (8001238 <HAL_RCC_OscConfig+0x268>)
 8001110:	4605      	mov	r5, r0
 8001112:	6833      	ldr	r3, [r6, #0]
 8001114:	079f      	lsls	r7, r3, #30
 8001116:	f57f af65 	bpl.w	8000fe4 <HAL_RCC_OscConfig+0x14>
 800111a:	f7ff fc3b 	bl	8000994 <HAL_GetTick>
 800111e:	1b40      	subs	r0, r0, r5
 8001120:	2802      	cmp	r0, #2
 8001122:	d9f6      	bls.n	8001112 <HAL_RCC_OscConfig+0x142>
 8001124:	e798      	b.n	8001058 <HAL_RCC_OscConfig+0x88>
 8001126:	6962      	ldr	r2, [r4, #20]
 8001128:	4b44      	ldr	r3, [pc, #272]	@ (800123c <HAL_RCC_OscConfig+0x26c>)
 800112a:	b182      	cbz	r2, 800114e <HAL_RCC_OscConfig+0x17e>
 800112c:	2201      	movs	r2, #1
 800112e:	f8c3 2e80 	str.w	r2, [r3, #3712]	@ 0xe80
 8001132:	f7ff fc2f 	bl	8000994 <HAL_GetTick>
 8001136:	4e40      	ldr	r6, [pc, #256]	@ (8001238 <HAL_RCC_OscConfig+0x268>)
 8001138:	4605      	mov	r5, r0
 800113a:	6f73      	ldr	r3, [r6, #116]	@ 0x74
 800113c:	079b      	lsls	r3, r3, #30
 800113e:	f53f af55 	bmi.w	8000fec <HAL_RCC_OscConfig+0x1c>
 8001142:	f7ff fc27 	bl	8000994 <HAL_GetTick>
 8001146:	1b40      	subs	r0, r0, r5
 8001148:	2802      	cmp	r0, #2
 800114a:	d9f6      	bls.n	800113a <HAL_RCC_OscConfig+0x16a>
 800114c:	e784      	b.n	8001058 <HAL_RCC_OscConfig+0x88>
 800114e:	f8c3 2e80 	str.w	r2, [r3, #3712]	@ 0xe80
 8001152:	f7ff fc1f 	bl	8000994 <HAL_GetTick>
 8001156:	4e38      	ldr	r6, [pc, #224]	@ (8001238 <HAL_RCC_OscConfig+0x268>)
 8001158:	4605      	mov	r5, r0
 800115a:	6f73      	ldr	r3, [r6, #116]	@ 0x74
 800115c:	079f      	lsls	r7, r3, #30
 800115e:	f57f af45 	bpl.w	8000fec <HAL_RCC_OscConfig+0x1c>
 8001162:	f7ff fc17 	bl	8000994 <HAL_GetTick>
 8001166:	1b40      	subs	r0, r0, r5
 8001168:	2802      	cmp	r0, #2
 800116a:	d9f6      	bls.n	800115a <HAL_RCC_OscConfig+0x18a>
 800116c:	e774      	b.n	8001058 <HAL_RCC_OscConfig+0x88>
 800116e:	4b32      	ldr	r3, [pc, #200]	@ (8001238 <HAL_RCC_OscConfig+0x268>)
 8001170:	6c1a      	ldr	r2, [r3, #64]	@ 0x40
 8001172:	f012 5280 	ands.w	r2, r2, #268435456	@ 0x10000000
 8001176:	d128      	bne.n	80011ca <HAL_RCC_OscConfig+0x1fa>
 8001178:	9201      	str	r2, [sp, #4]
 800117a:	6c1a      	ldr	r2, [r3, #64]	@ 0x40
 800117c:	f042 5280 	orr.w	r2, r2, #268435456	@ 0x10000000
 8001180:	641a      	str	r2, [r3, #64]	@ 0x40
 8001182:	6c1b      	ldr	r3, [r3, #64]	@ 0x40
 8001184:	f003 5380 	and.w	r3, r3, #268435456	@ 0x10000000
 8001188:	9301      	str	r3, [sp, #4]
 800118a:	9b01      	ldr	r3, [sp, #4]
 800118c:	2701      	movs	r7, #1
 800118e:	4d2c      	ldr	r5, [pc, #176]	@ (8001240 <HAL_RCC_OscConfig+0x270>)
 8001190:	682b      	ldr	r3, [r5, #0]
 8001192:	05d8      	lsls	r0, r3, #23
 8001194:	d51b      	bpl.n	80011ce <HAL_RCC_OscConfig+0x1fe>
 8001196:	68a3      	ldr	r3, [r4, #8]
 8001198:	4d27      	ldr	r5, [pc, #156]	@ (8001238 <HAL_RCC_OscConfig+0x268>)
 800119a:	2b01      	cmp	r3, #1
 800119c:	d127      	bne.n	80011ee <HAL_RCC_OscConfig+0x21e>
 800119e:	6f2b      	ldr	r3, [r5, #112]	@ 0x70
 80011a0:	f043 0301 	orr.w	r3, r3, #1
 80011a4:	672b      	str	r3, [r5, #112]	@ 0x70
 80011a6:	f7ff fbf5 	bl	8000994 <HAL_GetTick>
 80011aa:	4e23      	ldr	r6, [pc, #140]	@ (8001238 <HAL_RCC_OscConfig+0x268>)
 80011ac:	4605      	mov	r5, r0
 80011ae:	f241 3888 	movw	r8, #5000	@ 0x1388
 80011b2:	6f33      	ldr	r3, [r6, #112]	@ 0x70
 80011b4:	079a      	lsls	r2, r3, #30
 80011b6:	d539      	bpl.n	800122c <HAL_RCC_OscConfig+0x25c>
 80011b8:	2f00      	cmp	r7, #0
 80011ba:	f43f af1b 	beq.w	8000ff4 <HAL_RCC_OscConfig+0x24>
 80011be:	4a1e      	ldr	r2, [pc, #120]	@ (8001238 <HAL_RCC_OscConfig+0x268>)
 80011c0:	6c13      	ldr	r3, [r2, #64]	@ 0x40
 80011c2:	f023 5380 	bic.w	r3, r3, #268435456	@ 0x10000000
 80011c6:	6413      	str	r3, [r2, #64]	@ 0x40
 80011c8:	e714      	b.n	8000ff4 <HAL_RCC_OscConfig+0x24>
 80011ca:	2700      	movs	r7, #0
 80011cc:	e7df      	b.n	800118e <HAL_RCC_OscConfig+0x1be>
 80011ce:	682b      	ldr	r3, [r5, #0]
 80011d0:	f443 7380 	orr.w	r3, r3, #256	@ 0x100
 80011d4:	602b      	str	r3, [r5, #0]
 80011d6:	f7ff fbdd 	bl	8000994 <HAL_GetTick>
 80011da:	4606      	mov	r6, r0
 80011dc:	682b      	ldr	r3, [r5, #0]
 80011de:	05d9      	lsls	r1, r3, #23
 80011e0:	d4d9      	bmi.n	8001196 <HAL_RCC_OscConfig+0x1c6>
 80011e2:	f7ff fbd7 	bl	8000994 <HAL_GetTick>
 80011e6:	1b80      	subs	r0, r0, r6
 80011e8:	2802      	cmp	r0, #2
 80011ea:	d9f7      	bls.n	80011dc <HAL_RCC_OscConfig+0x20c>
 80011ec:	e734      	b.n	8001058 <HAL_RCC_OscConfig+0x88>
 80011ee:	2b05      	cmp	r3, #5
 80011f0:	d104      	bne.n	80011fc <HAL_RCC_OscConfig+0x22c>
 80011f2:	6f2b      	ldr	r3, [r5, #112]	@ 0x70
 80011f4:	f043 0304 	orr.w	r3, r3, #4
 80011f8:	672b      	str	r3, [r5, #112]	@ 0x70
 80011fa:	e7d0      	b.n	800119e <HAL_RCC_OscConfig+0x1ce>
 80011fc:	6f2a      	ldr	r2, [r5, #112]	@ 0x70
 80011fe:	f022 0201 	bic.w	r2, r2, #1
 8001202:	672a      	str	r2, [r5, #112]	@ 0x70
 8001204:	6f2a      	ldr	r2, [r5, #112]	@ 0x70
 8001206:	f022 0204 	bic.w	r2, r2, #4
 800120a:	672a      	str	r2, [r5, #112]	@ 0x70
 800120c:	2b00      	cmp	r3, #0
 800120e:	d1ca      	bne.n	80011a6 <HAL_RCC_OscConfig+0x1d6>
 8001210:	f7ff fbc0 	bl	8000994 <HAL_GetTick>
 8001214:	f241 3888 	movw	r8, #5000	@ 0x1388
 8001218:	4606      	mov	r6, r0
 800121a:	6f2b      	ldr	r3, [r5, #112]	@ 0x70
 800121c:	079b      	lsls	r3, r3, #30
 800121e:	d5cb      	bpl.n	80011b8 <HAL_RCC_OscConfig+0x1e8>
 8001220:	f7ff fbb8 	bl	8000994 <HAL_GetTick>
 8001224:	1b80      	subs	r0, r0, r6
 8001226:	4540      	cmp	r0, r8
 8001228:	d9f7      	bls.n	800121a <HAL_RCC_OscConfig+0x24a>
 800122a:	e715      	b.n	8001058 <HAL_RCC_OscConfig+0x88>
 800122c:	f7ff fbb2 	bl	8000994 <HAL_GetTick>
 8001230:	1b40      	subs	r0, r0, r5
 8001232:	4540      	cmp	r0, r8
 8001234:	d9bd      	bls.n	80011b2 <HAL_RCC_OscConfig+0x1e2>
 8001236:	e70f      	b.n	8001058 <HAL_RCC_OscConfig+0x88>
 8001238:	40023800 	.word	0x40023800
 800123c:	42470000 	.word	0x42470000
 8001240:	40007000 	.word	0x40007000
 8001244:	4d37      	ldr	r5, [pc, #220]	@ (8001324 <HAL_RCC_OscConfig+0x354>)
 8001246:	68aa      	ldr	r2, [r5, #8]
 8001248:	f002 020c 	and.w	r2, r2, #12
 800124c:	2a08      	cmp	r2, #8
 800124e:	d03e      	beq.n	80012ce <HAL_RCC_OscConfig+0x2fe>
 8001250:	2b02      	cmp	r3, #2
 8001252:	4b35      	ldr	r3, [pc, #212]	@ (8001328 <HAL_RCC_OscConfig+0x358>)
 8001254:	f04f 0200 	mov.w	r2, #0
 8001258:	661a      	str	r2, [r3, #96]	@ 0x60
 800125a:	d12b      	bne.n	80012b4 <HAL_RCC_OscConfig+0x2e4>
 800125c:	f7ff fb9a 	bl	8000994 <HAL_GetTick>
 8001260:	4606      	mov	r6, r0
 8001262:	682b      	ldr	r3, [r5, #0]
 8001264:	0199      	lsls	r1, r3, #6
 8001266:	d41f      	bmi.n	80012a8 <HAL_RCC_OscConfig+0x2d8>
 8001268:	e9d4 3207 	ldrd	r3, r2, [r4, #28]
 800126c:	4313      	orrs	r3, r2
 800126e:	6a62      	ldr	r2, [r4, #36]	@ 0x24
 8001270:	ea43 1382 	orr.w	r3, r3, r2, lsl #6
 8001274:	6ae2      	ldr	r2, [r4, #44]	@ 0x2c
 8001276:	ea43 6302 	orr.w	r3, r3, r2, lsl #24
 800127a:	6aa2      	ldr	r2, [r4, #40]	@ 0x28
 800127c:	0852      	lsrs	r2, r2, #1
 800127e:	3a01      	subs	r2, #1
 8001280:	ea43 4302 	orr.w	r3, r3, r2, lsl #16
 8001284:	606b      	str	r3, [r5, #4]
 8001286:	4b28      	ldr	r3, [pc, #160]	@ (8001328 <HAL_RCC_OscConfig+0x358>)
 8001288:	4d26      	ldr	r5, [pc, #152]	@ (8001324 <HAL_RCC_OscConfig+0x354>)
 800128a:	2201      	movs	r2, #1
 800128c:	661a      	str	r2, [r3, #96]	@ 0x60
 800128e:	f7ff fb81 	bl	8000994 <HAL_GetTick>
 8001292:	4604      	mov	r4, r0
 8001294:	682b      	ldr	r3, [r5, #0]
 8001296:	019a      	lsls	r2, r3, #6
 8001298:	f53f aeb0 	bmi.w	8000ffc <HAL_RCC_OscConfig+0x2c>
 800129c:	f7ff fb7a 	bl	8000994 <HAL_GetTick>
 80012a0:	1b00      	subs	r0, r0, r4
 80012a2:	2802      	cmp	r0, #2
 80012a4:	d9f6      	bls.n	8001294 <HAL_RCC_OscConfig+0x2c4>
 80012a6:	e6d7      	b.n	8001058 <HAL_RCC_OscConfig+0x88>
 80012a8:	f7ff fb74 	bl	8000994 <HAL_GetTick>
 80012ac:	1b80      	subs	r0, r0, r6
 80012ae:	2802      	cmp	r0, #2
 80012b0:	d9d7      	bls.n	8001262 <HAL_RCC_OscConfig+0x292>
 80012b2:	e6d1      	b.n	8001058 <HAL_RCC_OscConfig+0x88>
 80012b4:	f7ff fb6e 	bl	8000994 <HAL_GetTick>
 80012b8:	4604      	mov	r4, r0
 80012ba:	682b      	ldr	r3, [r5, #0]
 80012bc:	019b      	lsls	r3, r3, #6
 80012be:	f57f ae9d 	bpl.w	8000ffc <HAL_RCC_OscConfig+0x2c>
 80012c2:	f7ff fb67 	bl	8000994 <HAL_GetTick>
 80012c6:	1b00      	subs	r0, r0, r4
 80012c8:	2802      	cmp	r0, #2
 80012ca:	d9f6      	bls.n	80012ba <HAL_RCC_OscConfig+0x2ea>
 80012cc:	e6c4      	b.n	8001058 <HAL_RCC_OscConfig+0x88>
 80012ce:	2b01      	cmp	r3, #1
 80012d0:	f43f aeab 	beq.w	800102a <HAL_RCC_OscConfig+0x5a>
 80012d4:	686b      	ldr	r3, [r5, #4]
 80012d6:	69e2      	ldr	r2, [r4, #28]
 80012d8:	f403 0180 	and.w	r1, r3, #4194304	@ 0x400000
 80012dc:	4291      	cmp	r1, r2
 80012de:	f47f aea4 	bne.w	800102a <HAL_RCC_OscConfig+0x5a>
 80012e2:	6a21      	ldr	r1, [r4, #32]
 80012e4:	f003 023f 	and.w	r2, r3, #63	@ 0x3f
 80012e8:	428a      	cmp	r2, r1
 80012ea:	f47f ae9e 	bne.w	800102a <HAL_RCC_OscConfig+0x5a>
 80012ee:	6a61      	ldr	r1, [r4, #36]	@ 0x24
 80012f0:	f647 72c0 	movw	r2, #32704	@ 0x7fc0
 80012f4:	401a      	ands	r2, r3
 80012f6:	ebb2 1f81 	cmp.w	r2, r1, lsl #6
 80012fa:	f47f ae96 	bne.w	800102a <HAL_RCC_OscConfig+0x5a>
 80012fe:	6aa2      	ldr	r2, [r4, #40]	@ 0x28
 8001300:	0852      	lsrs	r2, r2, #1
 8001302:	f403 3140 	and.w	r1, r3, #196608	@ 0x30000
 8001306:	3a01      	subs	r2, #1
 8001308:	ebb1 4f02 	cmp.w	r1, r2, lsl #16
 800130c:	f47f ae8d 	bne.w	800102a <HAL_RCC_OscConfig+0x5a>
 8001310:	6ae2      	ldr	r2, [r4, #44]	@ 0x2c
 8001312:	f003 6370 	and.w	r3, r3, #251658240	@ 0xf000000
 8001316:	ebb3 6f02 	cmp.w	r3, r2, lsl #24
 800131a:	bf14      	ite	ne
 800131c:	2001      	movne	r0, #1
 800131e:	2000      	moveq	r0, #0
 8001320:	e69b      	b.n	800105a <HAL_RCC_OscConfig+0x8a>
 8001322:	bf00      	nop
 8001324:	40023800 	.word	0x40023800
 8001328:	42470000 	.word	0x42470000

0800132c <HAL_RCC_EnableCSS>:
 800132c:	4b01      	ldr	r3, [pc, #4]	@ (8001334 <HAL_RCC_EnableCSS+0x8>)
 800132e:	2201      	movs	r2, #1
 8001330:	64da      	str	r2, [r3, #76]	@ 0x4c
 8001332:	4770      	bx	lr
 8001334:	42470000 	.word	0x42470000

08001338 <HAL_RCC_GetSysClockFreq>:
 8001338:	4913      	ldr	r1, [pc, #76]	@ (8001388 <HAL_RCC_GetSysClockFreq+0x50>)
 800133a:	b508      	push	{r3, lr}
 800133c:	688b      	ldr	r3, [r1, #8]
 800133e:	f003 030c 	and.w	r3, r3, #12
 8001342:	2b04      	cmp	r3, #4
 8001344:	d01c      	beq.n	8001380 <HAL_RCC_GetSysClockFreq+0x48>
 8001346:	2b08      	cmp	r3, #8
 8001348:	d11c      	bne.n	8001384 <HAL_RCC_GetSysClockFreq+0x4c>
 800134a:	684a      	ldr	r2, [r1, #4]
 800134c:	684b      	ldr	r3, [r1, #4]
 800134e:	6849      	ldr	r1, [r1, #4]
 8001350:	f413 0380 	ands.w	r3, r3, #4194304	@ 0x400000
 8001354:	bf14      	ite	ne
 8001356:	480d      	ldrne	r0, [pc, #52]	@ (800138c <HAL_RCC_GetSysClockFreq+0x54>)
 8001358:	480d      	ldreq	r0, [pc, #52]	@ (8001390 <HAL_RCC_GetSysClockFreq+0x58>)
 800135a:	f3c1 1188 	ubfx	r1, r1, #6, #9
 800135e:	bf18      	it	ne
 8001360:	2300      	movne	r3, #0
 8001362:	f002 023f 	and.w	r2, r2, #63	@ 0x3f
 8001366:	fba1 0100 	umull	r0, r1, r1, r0
 800136a:	f7fe ff35 	bl	80001d8 <__aeabi_uldivmod>
 800136e:	4b06      	ldr	r3, [pc, #24]	@ (8001388 <HAL_RCC_GetSysClockFreq+0x50>)
 8001370:	685b      	ldr	r3, [r3, #4]
 8001372:	f3c3 4301 	ubfx	r3, r3, #16, #2
 8001376:	3301      	adds	r3, #1
 8001378:	005b      	lsls	r3, r3, #1
 800137a:	fbb0 f0f3 	udiv	r0, r0, r3
 800137e:	bd08      	pop	{r3, pc}
 8001380:	4802      	ldr	r0, [pc, #8]	@ (800138c <HAL_RCC_GetSysClockFreq+0x54>)
 8001382:	e7fc      	b.n	800137e <HAL_RCC_GetSysClockFreq+0x46>
 8001384:	4802      	ldr	r0, [pc, #8]	@ (8001390 <HAL_RCC_GetSysClockFreq+0x58>)
 8001386:	e7fa      	b.n	800137e <HAL_RCC_GetSysClockFreq+0x46>
 8001388:	40023800 	.word	0x40023800
 800138c:	017d7840 	.word	0x017d7840
 8001390:	00f42400 	.word	0x00f42400

08001394 <HAL_RCC_ClockConfig>:
 8001394:	e92d 41f0 	stmdb	sp!, {r4, r5, r6, r7, r8, lr}
 8001398:	460d      	mov	r5, r1
 800139a:	4604      	mov	r4, r0
 800139c:	b910      	cbnz	r0, 80013a4 <HAL_RCC_ClockConfig+0x10>
 800139e:	2001      	movs	r0, #1
 80013a0:	e8bd 81f0 	ldmia.w	sp!, {r4, r5, r6, r7, r8, pc}
 80013a4:	4b43      	ldr	r3, [pc, #268]	@ (80014b4 <HAL_RCC_ClockConfig+0x120>)
 80013a6:	681a      	ldr	r2, [r3, #0]
 80013a8:	f002 0207 	and.w	r2, r2, #7
 80013ac:	428a      	cmp	r2, r1
 80013ae:	d328      	bcc.n	8001402 <HAL_RCC_ClockConfig+0x6e>
 80013b0:	6821      	ldr	r1, [r4, #0]
 80013b2:	078f      	lsls	r7, r1, #30
 80013b4:	d42d      	bmi.n	8001412 <HAL_RCC_ClockConfig+0x7e>
 80013b6:	07c8      	lsls	r0, r1, #31
 80013b8:	d440      	bmi.n	800143c <HAL_RCC_ClockConfig+0xa8>
 80013ba:	4b3e      	ldr	r3, [pc, #248]	@ (80014b4 <HAL_RCC_ClockConfig+0x120>)
 80013bc:	681a      	ldr	r2, [r3, #0]
 80013be:	f002 0207 	and.w	r2, r2, #7
 80013c2:	42aa      	cmp	r2, r5
 80013c4:	d865      	bhi.n	8001492 <HAL_RCC_ClockConfig+0xfe>
 80013c6:	6822      	ldr	r2, [r4, #0]
 80013c8:	0751      	lsls	r1, r2, #29
 80013ca:	d46b      	bmi.n	80014a4 <HAL_RCC_ClockConfig+0x110>
 80013cc:	0713      	lsls	r3, r2, #28
 80013ce:	d507      	bpl.n	80013e0 <HAL_RCC_ClockConfig+0x4c>
 80013d0:	4a39      	ldr	r2, [pc, #228]	@ (80014b8 <HAL_RCC_ClockConfig+0x124>)
 80013d2:	6921      	ldr	r1, [r4, #16]
 80013d4:	6893      	ldr	r3, [r2, #8]
 80013d6:	f423 4360 	bic.w	r3, r3, #57344	@ 0xe000
 80013da:	ea43 03c1 	orr.w	r3, r3, r1, lsl #3
 80013de:	6093      	str	r3, [r2, #8]
 80013e0:	f7ff ffaa 	bl	8001338 <HAL_RCC_GetSysClockFreq>
 80013e4:	4b34      	ldr	r3, [pc, #208]	@ (80014b8 <HAL_RCC_ClockConfig+0x124>)
 80013e6:	4a35      	ldr	r2, [pc, #212]	@ (80014bc <HAL_RCC_ClockConfig+0x128>)
 80013e8:	689b      	ldr	r3, [r3, #8]
 80013ea:	f3c3 1303 	ubfx	r3, r3, #4, #4
 80013ee:	5cd3      	ldrb	r3, [r2, r3]
 80013f0:	40d8      	lsrs	r0, r3
 80013f2:	4b33      	ldr	r3, [pc, #204]	@ (80014c0 <HAL_RCC_ClockConfig+0x12c>)
 80013f4:	6018      	str	r0, [r3, #0]
 80013f6:	4b33      	ldr	r3, [pc, #204]	@ (80014c4 <HAL_RCC_ClockConfig+0x130>)
 80013f8:	6818      	ldr	r0, [r3, #0]
 80013fa:	f7ff fa81 	bl	8000900 <HAL_InitTick>
 80013fe:	2000      	movs	r0, #0
 8001400:	e7ce      	b.n	80013a0 <HAL_RCC_ClockConfig+0xc>
 8001402:	b2ca      	uxtb	r2, r1
 8001404:	701a      	strb	r2, [r3, #0]
 8001406:	681b      	ldr	r3, [r3, #0]
 8001408:	f003 0307 	and.w	r3, r3, #7
 800140c:	428b      	cmp	r3, r1
 800140e:	d1c6      	bne.n	800139e <HAL_RCC_ClockConfig+0xa>
 8001410:	e7ce      	b.n	80013b0 <HAL_RCC_ClockConfig+0x1c>
 8001412:	4b29      	ldr	r3, [pc, #164]	@ (80014b8 <HAL_RCC_ClockConfig+0x124>)
 8001414:	f011 0f04 	tst.w	r1, #4
 8001418:	bf1e      	ittt	ne
 800141a:	689a      	ldrne	r2, [r3, #8]
 800141c:	f442 52e0 	orrne.w	r2, r2, #7168	@ 0x1c00
 8001420:	609a      	strne	r2, [r3, #8]
 8001422:	070e      	lsls	r6, r1, #28
 8001424:	bf42      	ittt	mi
 8001426:	689a      	ldrmi	r2, [r3, #8]
 8001428:	f442 4260 	orrmi.w	r2, r2, #57344	@ 0xe000
 800142c:	609a      	strmi	r2, [r3, #8]
 800142e:	689a      	ldr	r2, [r3, #8]
 8001430:	68a0      	ldr	r0, [r4, #8]
 8001432:	f022 02f0 	bic.w	r2, r2, #240	@ 0xf0
 8001436:	4302      	orrs	r2, r0
 8001438:	609a      	str	r2, [r3, #8]
 800143a:	e7bc      	b.n	80013b6 <HAL_RCC_ClockConfig+0x22>
 800143c:	6862      	ldr	r2, [r4, #4]
 800143e:	4b1e      	ldr	r3, [pc, #120]	@ (80014b8 <HAL_RCC_ClockConfig+0x124>)
 8001440:	2a01      	cmp	r2, #1
 8001442:	d11c      	bne.n	800147e <HAL_RCC_ClockConfig+0xea>
 8001444:	681b      	ldr	r3, [r3, #0]
 8001446:	f413 3f00 	tst.w	r3, #131072	@ 0x20000
 800144a:	d0a8      	beq.n	800139e <HAL_RCC_ClockConfig+0xa>
 800144c:	4e1a      	ldr	r6, [pc, #104]	@ (80014b8 <HAL_RCC_ClockConfig+0x124>)
 800144e:	68b3      	ldr	r3, [r6, #8]
 8001450:	f023 0303 	bic.w	r3, r3, #3
 8001454:	4313      	orrs	r3, r2
 8001456:	60b3      	str	r3, [r6, #8]
 8001458:	f7ff fa9c 	bl	8000994 <HAL_GetTick>
 800145c:	f241 3888 	movw	r8, #5000	@ 0x1388
 8001460:	4607      	mov	r7, r0
 8001462:	68b3      	ldr	r3, [r6, #8]
 8001464:	6862      	ldr	r2, [r4, #4]
 8001466:	f003 030c 	and.w	r3, r3, #12
 800146a:	ebb3 0f82 	cmp.w	r3, r2, lsl #2
 800146e:	d0a4      	beq.n	80013ba <HAL_RCC_ClockConfig+0x26>
 8001470:	f7ff fa90 	bl	8000994 <HAL_GetTick>
 8001474:	1bc0      	subs	r0, r0, r7
 8001476:	4540      	cmp	r0, r8
 8001478:	d9f3      	bls.n	8001462 <HAL_RCC_ClockConfig+0xce>
 800147a:	2003      	movs	r0, #3
 800147c:	e790      	b.n	80013a0 <HAL_RCC_ClockConfig+0xc>
 800147e:	1e91      	subs	r1, r2, #2
 8001480:	2901      	cmp	r1, #1
 8001482:	681b      	ldr	r3, [r3, #0]
 8001484:	d802      	bhi.n	800148c <HAL_RCC_ClockConfig+0xf8>
 8001486:	f013 7f00 	tst.w	r3, #33554432	@ 0x2000000
 800148a:	e7de      	b.n	800144a <HAL_RCC_ClockConfig+0xb6>
 800148c:	f013 0f02 	tst.w	r3, #2
 8001490:	e7db      	b.n	800144a <HAL_RCC_ClockConfig+0xb6>
 8001492:	b2ea      	uxtb	r2, r5
 8001494:	701a      	strb	r2, [r3, #0]
 8001496:	681b      	ldr	r3, [r3, #0]
 8001498:	f003 0307 	and.w	r3, r3, #7
 800149c:	42ab      	cmp	r3, r5
 800149e:	f47f af7e 	bne.w	800139e <HAL_RCC_ClockConfig+0xa>
 80014a2:	e790      	b.n	80013c6 <HAL_RCC_ClockConfig+0x32>
 80014a4:	4904      	ldr	r1, [pc, #16]	@ (80014b8 <HAL_RCC_ClockConfig+0x124>)
 80014a6:	68e0      	ldr	r0, [r4, #12]
 80014a8:	688b      	ldr	r3, [r1, #8]
 80014aa:	f423 53e0 	bic.w	r3, r3, #7168	@ 0x1c00
 80014ae:	4303      	orrs	r3, r0
 80014b0:	608b      	str	r3, [r1, #8]
 80014b2:	e78b      	b.n	80013cc <HAL_RCC_ClockConfig+0x38>
 80014b4:	40023c00 	.word	0x40023c00
 80014b8:	40023800 	.word	0x40023800
 80014bc:	08003961 	.word	0x08003961
 80014c0:	20000000 	.word	0x20000000
 80014c4:	20000008 	.word	0x20000008

080014c8 <HAL_RCC_CSSCallback>:
 80014c8:	4770      	bx	lr
	...

080014cc <HAL_RCC_NMI_IRQHandler>:
 80014cc:	b510      	push	{r4, lr}
 80014ce:	4c04      	ldr	r4, [pc, #16]	@ (80014e0 <HAL_RCC_NMI_IRQHandler+0x14>)
 80014d0:	68e3      	ldr	r3, [r4, #12]
 80014d2:	061b      	lsls	r3, r3, #24
 80014d4:	d503      	bpl.n	80014de <HAL_RCC_NMI_IRQHandler+0x12>
 80014d6:	f7ff fff7 	bl	80014c8 <HAL_RCC_CSSCallback>
 80014da:	2380      	movs	r3, #128	@ 0x80
 80014dc:	73a3      	strb	r3, [r4, #14]
 80014de:	bd10      	pop	{r4, pc}
 80014e0:	40023800 	.word	0x40023800

080014e4 <SPI_WaitFlagStateUntilTimeout>:
 80014e4:	e92d 47f3 	stmdb	sp!, {r0, r1, r4, r5, r6, r7, r8, r9, sl, lr}
 80014e8:	461f      	mov	r7, r3
 80014ea:	4689      	mov	r9, r1
 80014ec:	4690      	mov	r8, r2
 80014ee:	4604      	mov	r4, r0
 80014f0:	f7ff fa50 	bl	8000994 <HAL_GetTick>
 80014f4:	9d0a      	ldr	r5, [sp, #40]	@ 0x28
 80014f6:	443d      	add	r5, r7
 80014f8:	1a2d      	subs	r5, r5, r0
 80014fa:	f7ff fa4b 	bl	8000994 <HAL_GetTick>
 80014fe:	4b26      	ldr	r3, [pc, #152]	@ (8001598 <SPI_WaitFlagStateUntilTimeout+0xb4>)
 8001500:	681e      	ldr	r6, [r3, #0]
 8001502:	f3c6 36cb 	ubfx	r6, r6, #15, #12
 8001506:	436e      	muls	r6, r5
 8001508:	4682      	mov	sl, r0
 800150a:	9601      	str	r6, [sp, #4]
 800150c:	6822      	ldr	r2, [r4, #0]
 800150e:	6893      	ldr	r3, [r2, #8]
 8001510:	ea39 0303 	bics.w	r3, r9, r3
 8001514:	bf0c      	ite	eq
 8001516:	2301      	moveq	r3, #1
 8001518:	2300      	movne	r3, #0
 800151a:	4543      	cmp	r3, r8
 800151c:	d101      	bne.n	8001522 <SPI_WaitFlagStateUntilTimeout+0x3e>
 800151e:	2000      	movs	r0, #0
 8001520:	e02e      	b.n	8001580 <SPI_WaitFlagStateUntilTimeout+0x9c>
 8001522:	1c7b      	adds	r3, r7, #1
 8001524:	d0f3      	beq.n	800150e <SPI_WaitFlagStateUntilTimeout+0x2a>
 8001526:	f7ff fa35 	bl	8000994 <HAL_GetTick>
 800152a:	eba0 000a 	sub.w	r0, r0, sl
 800152e:	42a8      	cmp	r0, r5
 8001530:	d329      	bcc.n	8001586 <SPI_WaitFlagStateUntilTimeout+0xa2>
 8001532:	6823      	ldr	r3, [r4, #0]
 8001534:	685a      	ldr	r2, [r3, #4]
 8001536:	f022 02e0 	bic.w	r2, r2, #224	@ 0xe0
 800153a:	605a      	str	r2, [r3, #4]
 800153c:	6862      	ldr	r2, [r4, #4]
 800153e:	f5b2 7f82 	cmp.w	r2, #260	@ 0x104
 8001542:	d10a      	bne.n	800155a <SPI_WaitFlagStateUntilTimeout+0x76>
 8001544:	68a2      	ldr	r2, [r4, #8]
 8001546:	f5b2 4f00 	cmp.w	r2, #32768	@ 0x8000
 800154a:	d002      	beq.n	8001552 <SPI_WaitFlagStateUntilTimeout+0x6e>
 800154c:	f5b2 6f80 	cmp.w	r2, #1024	@ 0x400
 8001550:	d103      	bne.n	800155a <SPI_WaitFlagStateUntilTimeout+0x76>
 8001552:	681a      	ldr	r2, [r3, #0]
 8001554:	f022 0240 	bic.w	r2, r2, #64	@ 0x40
 8001558:	601a      	str	r2, [r3, #0]
 800155a:	6aa2      	ldr	r2, [r4, #40]	@ 0x28
 800155c:	f5b2 5f00 	cmp.w	r2, #8192	@ 0x2000
 8001560:	d107      	bne.n	8001572 <SPI_WaitFlagStateUntilTimeout+0x8e>
 8001562:	681a      	ldr	r2, [r3, #0]
 8001564:	f422 5200 	bic.w	r2, r2, #8192	@ 0x2000
 8001568:	601a      	str	r2, [r3, #0]
 800156a:	681a      	ldr	r2, [r3, #0]
 800156c:	f442 5200 	orr.w	r2, r2, #8192	@ 0x2000
 8001570:	601a      	str	r2, [r3, #0]
 8001572:	2301      	movs	r3, #1
 8001574:	f884 3051 	strb.w	r3, [r4, #81]	@ 0x51
 8001578:	2300      	movs	r3, #0
 800157a:	f884 3050 	strb.w	r3, [r4, #80]	@ 0x50
 800157e:	2003      	movs	r0, #3
 8001580:	b002      	add	sp, #8
 8001582:	e8bd 87f0 	ldmia.w	sp!, {r4, r5, r6, r7, r8, r9, sl, pc}
 8001586:	9a01      	ldr	r2, [sp, #4]
 8001588:	9b01      	ldr	r3, [sp, #4]
 800158a:	2a00      	cmp	r2, #0
 800158c:	f103 33ff 	add.w	r3, r3, #4294967295
 8001590:	9301      	str	r3, [sp, #4]
 8001592:	bf08      	it	eq
 8001594:	4615      	moveq	r5, r2
 8001596:	e7b9      	b.n	800150c <SPI_WaitFlagStateUntilTimeout+0x28>
 8001598:	20000000 	.word	0x20000000

0800159c <SPI_EndRxTxTransaction>:
 800159c:	b5f0      	push	{r4, r5, r6, r7, lr}
 800159e:	b085      	sub	sp, #20
 80015a0:	460b      	mov	r3, r1
 80015a2:	9200      	str	r2, [sp, #0]
 80015a4:	460e      	mov	r6, r1
 80015a6:	4617      	mov	r7, r2
 80015a8:	2102      	movs	r1, #2
 80015aa:	2201      	movs	r2, #1
 80015ac:	4604      	mov	r4, r0
 80015ae:	f7ff ff99 	bl	80014e4 <SPI_WaitFlagStateUntilTimeout>
 80015b2:	4605      	mov	r5, r0
 80015b4:	b128      	cbz	r0, 80015c2 <SPI_EndRxTxTransaction+0x26>
 80015b6:	6d63      	ldr	r3, [r4, #84]	@ 0x54
 80015b8:	f043 0320 	orr.w	r3, r3, #32
 80015bc:	6563      	str	r3, [r4, #84]	@ 0x54
 80015be:	2503      	movs	r5, #3
 80015c0:	e015      	b.n	80015ee <SPI_EndRxTxTransaction+0x52>
 80015c2:	4b12      	ldr	r3, [pc, #72]	@ (800160c <SPI_EndRxTxTransaction+0x70>)
 80015c4:	6818      	ldr	r0, [r3, #0]
 80015c6:	4b12      	ldr	r3, [pc, #72]	@ (8001610 <SPI_EndRxTxTransaction+0x74>)
 80015c8:	fbb0 f0f3 	udiv	r0, r0, r3
 80015cc:	f44f 737a 	mov.w	r3, #1000	@ 0x3e8
 80015d0:	4358      	muls	r0, r3
 80015d2:	6863      	ldr	r3, [r4, #4]
 80015d4:	9003      	str	r0, [sp, #12]
 80015d6:	f5b3 7f82 	cmp.w	r3, #260	@ 0x104
 80015da:	d10b      	bne.n	80015f4 <SPI_EndRxTxTransaction+0x58>
 80015dc:	9700      	str	r7, [sp, #0]
 80015de:	4633      	mov	r3, r6
 80015e0:	462a      	mov	r2, r5
 80015e2:	2180      	movs	r1, #128	@ 0x80
 80015e4:	4620      	mov	r0, r4
 80015e6:	f7ff ff7d 	bl	80014e4 <SPI_WaitFlagStateUntilTimeout>
 80015ea:	2800      	cmp	r0, #0
 80015ec:	d1e3      	bne.n	80015b6 <SPI_EndRxTxTransaction+0x1a>
 80015ee:	4628      	mov	r0, r5
 80015f0:	b005      	add	sp, #20
 80015f2:	bdf0      	pop	{r4, r5, r6, r7, pc}
 80015f4:	9b03      	ldr	r3, [sp, #12]
 80015f6:	2b00      	cmp	r3, #0
 80015f8:	d0f9      	beq.n	80015ee <SPI_EndRxTxTransaction+0x52>
 80015fa:	9b03      	ldr	r3, [sp, #12]
 80015fc:	3b01      	subs	r3, #1
 80015fe:	9303      	str	r3, [sp, #12]
 8001600:	6823      	ldr	r3, [r4, #0]
 8001602:	689b      	ldr	r3, [r3, #8]
 8001604:	061b      	lsls	r3, r3, #24
 8001606:	d4f5      	bmi.n	80015f4 <SPI_EndRxTxTransaction+0x58>
 8001608:	e7f1      	b.n	80015ee <SPI_EndRxTxTransaction+0x52>
 800160a:	bf00      	nop
 800160c:	20000000 	.word	0x20000000
 8001610:	016e3600 	.word	0x016e3600

08001614 <SPI_EndRxTransaction>:
 8001614:	b537      	push	{r0, r1, r2, r4, r5, lr}
 8001616:	460b      	mov	r3, r1
 8001618:	6841      	ldr	r1, [r0, #4]
 800161a:	f5b1 7f82 	cmp.w	r1, #260	@ 0x104
 800161e:	4604      	mov	r4, r0
 8001620:	d008      	beq.n	8001634 <SPI_EndRxTransaction+0x20>
 8001622:	9200      	str	r2, [sp, #0]
 8001624:	2101      	movs	r1, #1
 8001626:	2200      	movs	r2, #0
 8001628:	f7ff ff5c 	bl	80014e4 <SPI_WaitFlagStateUntilTimeout>
 800162c:	b9d0      	cbnz	r0, 8001664 <SPI_EndRxTransaction+0x50>
 800162e:	2000      	movs	r0, #0
 8001630:	b003      	add	sp, #12
 8001632:	bd30      	pop	{r4, r5, pc}
 8001634:	6881      	ldr	r1, [r0, #8]
 8001636:	f5b1 4f00 	cmp.w	r1, #32768	@ 0x8000
 800163a:	d002      	beq.n	8001642 <SPI_EndRxTransaction+0x2e>
 800163c:	f5b1 6f80 	cmp.w	r1, #1024	@ 0x400
 8001640:	d107      	bne.n	8001652 <SPI_EndRxTransaction+0x3e>
 8001642:	6825      	ldr	r5, [r4, #0]
 8001644:	6828      	ldr	r0, [r5, #0]
 8001646:	f5b1 6f80 	cmp.w	r1, #1024	@ 0x400
 800164a:	f020 0040 	bic.w	r0, r0, #64	@ 0x40
 800164e:	6028      	str	r0, [r5, #0]
 8001650:	d004      	beq.n	800165c <SPI_EndRxTransaction+0x48>
 8001652:	9200      	str	r2, [sp, #0]
 8001654:	2180      	movs	r1, #128	@ 0x80
 8001656:	2200      	movs	r2, #0
 8001658:	4620      	mov	r0, r4
 800165a:	e7e5      	b.n	8001628 <SPI_EndRxTransaction+0x14>
 800165c:	9200      	str	r2, [sp, #0]
 800165e:	2101      	movs	r1, #1
 8001660:	2200      	movs	r2, #0
 8001662:	e7f9      	b.n	8001658 <SPI_EndRxTransaction+0x44>
 8001664:	6d63      	ldr	r3, [r4, #84]	@ 0x54
 8001666:	f043 0320 	orr.w	r3, r3, #32
 800166a:	6563      	str	r3, [r4, #84]	@ 0x54
 800166c:	2003      	movs	r0, #3
 800166e:	e7df      	b.n	8001630 <SPI_EndRxTransaction+0x1c>

08001670 <HAL_SPI_Init>:
 8001670:	b510      	push	{r4, lr}
 8001672:	4604      	mov	r4, r0
 8001674:	2800      	cmp	r0, #0
 8001676:	d055      	beq.n	8001724 <HAL_SPI_Init+0xb4>
 8001678:	6a43      	ldr	r3, [r0, #36]	@ 0x24
 800167a:	2b00      	cmp	r3, #0
 800167c:	d14e      	bne.n	800171c <HAL_SPI_Init+0xac>
 800167e:	6842      	ldr	r2, [r0, #4]
 8001680:	f5b2 7f82 	cmp.w	r2, #260	@ 0x104
 8001684:	d000      	beq.n	8001688 <HAL_SPI_Init+0x18>
 8001686:	61c3      	str	r3, [r0, #28]
 8001688:	2300      	movs	r3, #0
 800168a:	62a3      	str	r3, [r4, #40]	@ 0x28
 800168c:	f894 3051 	ldrb.w	r3, [r4, #81]	@ 0x51
 8001690:	f003 02ff 	and.w	r2, r3, #255	@ 0xff
 8001694:	b923      	cbnz	r3, 80016a0 <HAL_SPI_Init+0x30>
 8001696:	f884 2050 	strb.w	r2, [r4, #80]	@ 0x50
 800169a:	4620      	mov	r0, r4
 800169c:	f7ff f876 	bl	800078c <HAL_SPI_MspInit>
 80016a0:	6821      	ldr	r1, [r4, #0]
 80016a2:	68a0      	ldr	r0, [r4, #8]
 80016a4:	69a2      	ldr	r2, [r4, #24]
 80016a6:	2302      	movs	r3, #2
 80016a8:	f884 3051 	strb.w	r3, [r4, #81]	@ 0x51
 80016ac:	680b      	ldr	r3, [r1, #0]
 80016ae:	f023 0340 	bic.w	r3, r3, #64	@ 0x40
 80016b2:	600b      	str	r3, [r1, #0]
 80016b4:	6863      	ldr	r3, [r4, #4]
 80016b6:	f400 4004 	and.w	r0, r0, #33792	@ 0x8400
 80016ba:	f403 7382 	and.w	r3, r3, #260	@ 0x104
 80016be:	4303      	orrs	r3, r0
 80016c0:	68e0      	ldr	r0, [r4, #12]
 80016c2:	f400 6000 	and.w	r0, r0, #2048	@ 0x800
 80016c6:	4303      	orrs	r3, r0
 80016c8:	6920      	ldr	r0, [r4, #16]
 80016ca:	f000 0002 	and.w	r0, r0, #2
 80016ce:	4303      	orrs	r3, r0
 80016d0:	6960      	ldr	r0, [r4, #20]
 80016d2:	f000 0001 	and.w	r0, r0, #1
 80016d6:	4303      	orrs	r3, r0
 80016d8:	f402 7000 	and.w	r0, r2, #512	@ 0x200
 80016dc:	4303      	orrs	r3, r0
 80016de:	69e0      	ldr	r0, [r4, #28]
 80016e0:	f000 0038 	and.w	r0, r0, #56	@ 0x38
 80016e4:	4303      	orrs	r3, r0
 80016e6:	6a20      	ldr	r0, [r4, #32]
 80016e8:	f000 0080 	and.w	r0, r0, #128	@ 0x80
 80016ec:	4303      	orrs	r3, r0
 80016ee:	6aa0      	ldr	r0, [r4, #40]	@ 0x28
 80016f0:	f400 5000 	and.w	r0, r0, #8192	@ 0x2000
 80016f4:	4303      	orrs	r3, r0
 80016f6:	600b      	str	r3, [r1, #0]
 80016f8:	6a63      	ldr	r3, [r4, #36]	@ 0x24
 80016fa:	0c12      	lsrs	r2, r2, #16
 80016fc:	f003 0310 	and.w	r3, r3, #16
 8001700:	f002 0204 	and.w	r2, r2, #4
 8001704:	431a      	orrs	r2, r3
 8001706:	604a      	str	r2, [r1, #4]
 8001708:	69cb      	ldr	r3, [r1, #28]
 800170a:	f423 6300 	bic.w	r3, r3, #2048	@ 0x800
 800170e:	61cb      	str	r3, [r1, #28]
 8001710:	2000      	movs	r0, #0
 8001712:	2301      	movs	r3, #1
 8001714:	6560      	str	r0, [r4, #84]	@ 0x54
 8001716:	f884 3051 	strb.w	r3, [r4, #81]	@ 0x51
 800171a:	bd10      	pop	{r4, pc}
 800171c:	2300      	movs	r3, #0
 800171e:	e9c0 3304 	strd	r3, r3, [r0, #16]
 8001722:	e7b1      	b.n	8001688 <HAL_SPI_Init+0x18>
 8001724:	2001      	movs	r0, #1
 8001726:	e7f8      	b.n	800171a <HAL_SPI_Init+0xaa>

08001728 <HAL_SPI_TransmitReceive_DMA>:
 8001728:	b570      	push	{r4, r5, r6, lr}
 800172a:	4604      	mov	r4, r0
 800172c:	f890 0050 	ldrb.w	r0, [r0, #80]	@ 0x50
 8001730:	2801      	cmp	r0, #1
 8001732:	d070      	beq.n	8001816 <HAL_SPI_TransmitReceive_DMA+0xee>
 8001734:	2001      	movs	r0, #1
 8001736:	f884 0050 	strb.w	r0, [r4, #80]	@ 0x50
 800173a:	f894 0051 	ldrb.w	r0, [r4, #81]	@ 0x51
 800173e:	6866      	ldr	r6, [r4, #4]
 8001740:	2801      	cmp	r0, #1
 8001742:	b2c5      	uxtb	r5, r0
 8001744:	d007      	beq.n	8001756 <HAL_SPI_TransmitReceive_DMA+0x2e>
 8001746:	f5b6 7f82 	cmp.w	r6, #260	@ 0x104
 800174a:	d162      	bne.n	8001812 <HAL_SPI_TransmitReceive_DMA+0xea>
 800174c:	68a0      	ldr	r0, [r4, #8]
 800174e:	2800      	cmp	r0, #0
 8001750:	d15f      	bne.n	8001812 <HAL_SPI_TransmitReceive_DMA+0xea>
 8001752:	2d04      	cmp	r5, #4
 8001754:	d15d      	bne.n	8001812 <HAL_SPI_TransmitReceive_DMA+0xea>
 8001756:	2900      	cmp	r1, #0
 8001758:	d033      	beq.n	80017c2 <HAL_SPI_TransmitReceive_DMA+0x9a>
 800175a:	2a00      	cmp	r2, #0
 800175c:	d031      	beq.n	80017c2 <HAL_SPI_TransmitReceive_DMA+0x9a>
 800175e:	2b00      	cmp	r3, #0
 8001760:	d02f      	beq.n	80017c2 <HAL_SPI_TransmitReceive_DMA+0x9a>
 8001762:	f894 0051 	ldrb.w	r0, [r4, #81]	@ 0x51
 8001766:	86a3      	strh	r3, [r4, #52]	@ 0x34
 8001768:	2804      	cmp	r0, #4
 800176a:	bf18      	it	ne
 800176c:	2005      	movne	r0, #5
 800176e:	f04f 0500 	mov.w	r5, #0
 8001772:	bf18      	it	ne
 8001774:	f884 0051 	strbne.w	r0, [r4, #81]	@ 0x51
 8001778:	6565      	str	r5, [r4, #84]	@ 0x54
 800177a:	86e3      	strh	r3, [r4, #54]	@ 0x36
 800177c:	87e3      	strh	r3, [r4, #62]	@ 0x3e
 800177e:	87a3      	strh	r3, [r4, #60]	@ 0x3c
 8001780:	f894 3051 	ldrb.w	r3, [r4, #81]	@ 0x51
 8001784:	4e25      	ldr	r6, [pc, #148]	@ (800181c <HAL_SPI_TransmitReceive_DMA+0xf4>)
 8001786:	6321      	str	r1, [r4, #48]	@ 0x30
 8001788:	2b04      	cmp	r3, #4
 800178a:	4b25      	ldr	r3, [pc, #148]	@ (8001820 <HAL_SPI_TransmitReceive_DMA+0xf8>)
 800178c:	6ce0      	ldr	r0, [r4, #76]	@ 0x4c
 800178e:	4925      	ldr	r1, [pc, #148]	@ (8001824 <HAL_SPI_TransmitReceive_DMA+0xfc>)
 8001790:	63a2      	str	r2, [r4, #56]	@ 0x38
 8001792:	bf18      	it	ne
 8001794:	4619      	movne	r1, r3
 8001796:	4b24      	ldr	r3, [pc, #144]	@ (8001828 <HAL_SPI_TransmitReceive_DMA+0x100>)
 8001798:	bf18      	it	ne
 800179a:	4633      	movne	r3, r6
 800179c:	e9c4 5510 	strd	r5, r5, [r4, #64]	@ 0x40
 80017a0:	e9c0 310f 	strd	r3, r1, [r0, #60]	@ 0x3c
 80017a4:	4b21      	ldr	r3, [pc, #132]	@ (800182c <HAL_SPI_TransmitReceive_DMA+0x104>)
 80017a6:	6821      	ldr	r1, [r4, #0]
 80017a8:	e9c0 3513 	strd	r3, r5, [r0, #76]	@ 0x4c
 80017ac:	8fe3      	ldrh	r3, [r4, #62]	@ 0x3e
 80017ae:	310c      	adds	r1, #12
 80017b0:	b29b      	uxth	r3, r3
 80017b2:	f7ff fa03 	bl	8000bbc <HAL_DMA_Start_IT>
 80017b6:	4603      	mov	r3, r0
 80017b8:	b140      	cbz	r0, 80017cc <HAL_SPI_TransmitReceive_DMA+0xa4>
 80017ba:	6d63      	ldr	r3, [r4, #84]	@ 0x54
 80017bc:	f043 0310 	orr.w	r3, r3, #16
 80017c0:	6563      	str	r3, [r4, #84]	@ 0x54
 80017c2:	2001      	movs	r0, #1
 80017c4:	2300      	movs	r3, #0
 80017c6:	f884 3050 	strb.w	r3, [r4, #80]	@ 0x50
 80017ca:	bd70      	pop	{r4, r5, r6, pc}
 80017cc:	6822      	ldr	r2, [r4, #0]
 80017ce:	6ca0      	ldr	r0, [r4, #72]	@ 0x48
 80017d0:	6851      	ldr	r1, [r2, #4]
 80017d2:	f041 0101 	orr.w	r1, r1, #1
 80017d6:	6051      	str	r1, [r2, #4]
 80017d8:	e9c0 330f 	strd	r3, r3, [r0, #60]	@ 0x3c
 80017dc:	e9c0 3313 	strd	r3, r3, [r0, #76]	@ 0x4c
 80017e0:	8ee3      	ldrh	r3, [r4, #54]	@ 0x36
 80017e2:	6b21      	ldr	r1, [r4, #48]	@ 0x30
 80017e4:	b29b      	uxth	r3, r3
 80017e6:	320c      	adds	r2, #12
 80017e8:	f7ff f9e8 	bl	8000bbc <HAL_DMA_Start_IT>
 80017ec:	2800      	cmp	r0, #0
 80017ee:	d1e4      	bne.n	80017ba <HAL_SPI_TransmitReceive_DMA+0x92>
 80017f0:	6823      	ldr	r3, [r4, #0]
 80017f2:	681a      	ldr	r2, [r3, #0]
 80017f4:	0652      	lsls	r2, r2, #25
 80017f6:	bf5e      	ittt	pl
 80017f8:	681a      	ldrpl	r2, [r3, #0]
 80017fa:	f042 0240 	orrpl.w	r2, r2, #64	@ 0x40
 80017fe:	601a      	strpl	r2, [r3, #0]
 8001800:	685a      	ldr	r2, [r3, #4]
 8001802:	f042 0220 	orr.w	r2, r2, #32
 8001806:	605a      	str	r2, [r3, #4]
 8001808:	685a      	ldr	r2, [r3, #4]
 800180a:	f042 0202 	orr.w	r2, r2, #2
 800180e:	605a      	str	r2, [r3, #4]
 8001810:	e7d8      	b.n	80017c4 <HAL_SPI_TransmitReceive_DMA+0x9c>
 8001812:	2002      	movs	r0, #2
 8001814:	e7d6      	b.n	80017c4 <HAL_SPI_TransmitReceive_DMA+0x9c>
 8001816:	2002      	movs	r0, #2
 8001818:	e7d7      	b.n	80017ca <HAL_SPI_TransmitReceive_DMA+0xa2>
 800181a:	bf00      	nop
 800181c:	0800191b 	.word	0x0800191b
 8001820:	08001887 	.word	0x08001887
 8001824:	0800187b 	.word	0x0800187b
 8001828:	080018b5 	.word	0x080018b5
 800182c:	08001893 	.word	0x08001893

08001830 <HAL_SPI_DMAStop>:
 8001830:	b538      	push	{r3, r4, r5, lr}
 8001832:	4604      	mov	r4, r0
 8001834:	6c80      	ldr	r0, [r0, #72]	@ 0x48
 8001836:	b9a0      	cbnz	r0, 8001862 <HAL_SPI_DMAStop+0x32>
 8001838:	2500      	movs	r5, #0
 800183a:	6ce0      	ldr	r0, [r4, #76]	@ 0x4c
 800183c:	b138      	cbz	r0, 800184e <HAL_SPI_DMAStop+0x1e>
 800183e:	f7ff f9f6 	bl	8000c2e <HAL_DMA_Abort>
 8001842:	b120      	cbz	r0, 800184e <HAL_SPI_DMAStop+0x1e>
 8001844:	6d63      	ldr	r3, [r4, #84]	@ 0x54
 8001846:	f043 0310 	orr.w	r3, r3, #16
 800184a:	6563      	str	r3, [r4, #84]	@ 0x54
 800184c:	2501      	movs	r5, #1
 800184e:	6822      	ldr	r2, [r4, #0]
 8001850:	6853      	ldr	r3, [r2, #4]
 8001852:	f023 0303 	bic.w	r3, r3, #3
 8001856:	6053      	str	r3, [r2, #4]
 8001858:	2301      	movs	r3, #1
 800185a:	f884 3051 	strb.w	r3, [r4, #81]	@ 0x51
 800185e:	4628      	mov	r0, r5
 8001860:	bd38      	pop	{r3, r4, r5, pc}
 8001862:	f7ff f9e4 	bl	8000c2e <HAL_DMA_Abort>
 8001866:	2800      	cmp	r0, #0
 8001868:	d0e6      	beq.n	8001838 <HAL_SPI_DMAStop+0x8>
 800186a:	6d63      	ldr	r3, [r4, #84]	@ 0x54
 800186c:	f043 0310 	orr.w	r3, r3, #16
 8001870:	6563      	str	r3, [r4, #84]	@ 0x54
 8001872:	2501      	movs	r5, #1
 8001874:	e7e1      	b.n	800183a <HAL_SPI_DMAStop+0xa>

08001876 <HAL_SPI_RxCpltCallback>:
 8001876:	4770      	bx	lr

08001878 <HAL_SPI_RxHalfCpltCallback>:
 8001878:	4770      	bx	lr

0800187a <SPI_DMAHalfReceiveCplt>:
 800187a:	b508      	push	{r3, lr}
 800187c:	6b80      	ldr	r0, [r0, #56]	@ 0x38
 800187e:	f7ff fffb 	bl	8001878 <HAL_SPI_RxHalfCpltCallback>
 8001882:	bd08      	pop	{r3, pc}

08001884 <HAL_SPI_TxRxHalfCpltCallback>:
 8001884:	4770      	bx	lr

08001886 <SPI_DMAHalfTransmitReceiveCplt>:
 8001886:	b508      	push	{r3, lr}
 8001888:	6b80      	ldr	r0, [r0, #56]	@ 0x38
 800188a:	f7ff fffb 	bl	8001884 <HAL_SPI_TxRxHalfCpltCallback>
 800188e:	bd08      	pop	{r3, pc}

08001890 <HAL_SPI_ErrorCallback>:
 8001890:	4770      	bx	lr

08001892 <SPI_DMAError>:
 8001892:	6b80      	ldr	r0, [r0, #56]	@ 0x38
 8001894:	6802      	ldr	r2, [r0, #0]
 8001896:	b508      	push	{r3, lr}
 8001898:	6853      	ldr	r3, [r2, #4]
 800189a:	f023 0303 	bic.w	r3, r3, #3
 800189e:	6053      	str	r3, [r2, #4]
 80018a0:	6d43      	ldr	r3, [r0, #84]	@ 0x54
 80018a2:	f043 0310 	orr.w	r3, r3, #16
 80018a6:	6543      	str	r3, [r0, #84]	@ 0x54
 80018a8:	2301      	movs	r3, #1
 80018aa:	f880 3051 	strb.w	r3, [r0, #81]	@ 0x51
 80018ae:	f7ff ffef 	bl	8001890 <HAL_SPI_ErrorCallback>
 80018b2:	bd08      	pop	{r3, pc}

080018b4 <SPI_DMAReceiveCplt>:
 80018b4:	b538      	push	{r3, r4, r5, lr}
 80018b6:	4605      	mov	r5, r0
 80018b8:	6b84      	ldr	r4, [r0, #56]	@ 0x38
 80018ba:	f7ff f86b 	bl	8000994 <HAL_GetTick>
 80018be:	682b      	ldr	r3, [r5, #0]
 80018c0:	681b      	ldr	r3, [r3, #0]
 80018c2:	05db      	lsls	r3, r3, #23
 80018c4:	4602      	mov	r2, r0
 80018c6:	d424      	bmi.n	8001912 <SPI_DMAReceiveCplt+0x5e>
 80018c8:	6823      	ldr	r3, [r4, #0]
 80018ca:	6859      	ldr	r1, [r3, #4]
 80018cc:	f021 0120 	bic.w	r1, r1, #32
 80018d0:	6059      	str	r1, [r3, #4]
 80018d2:	68a1      	ldr	r1, [r4, #8]
 80018d4:	b9c9      	cbnz	r1, 800190a <SPI_DMAReceiveCplt+0x56>
 80018d6:	6861      	ldr	r1, [r4, #4]
 80018d8:	f5b1 7f82 	cmp.w	r1, #260	@ 0x104
 80018dc:	d115      	bne.n	800190a <SPI_DMAReceiveCplt+0x56>
 80018de:	6859      	ldr	r1, [r3, #4]
 80018e0:	f021 0103 	bic.w	r1, r1, #3
 80018e4:	6059      	str	r1, [r3, #4]
 80018e6:	4620      	mov	r0, r4
 80018e8:	2164      	movs	r1, #100	@ 0x64
 80018ea:	f7ff fe93 	bl	8001614 <SPI_EndRxTransaction>
 80018ee:	b108      	cbz	r0, 80018f4 <SPI_DMAReceiveCplt+0x40>
 80018f0:	2320      	movs	r3, #32
 80018f2:	6563      	str	r3, [r4, #84]	@ 0x54
 80018f4:	2300      	movs	r3, #0
 80018f6:	87e3      	strh	r3, [r4, #62]	@ 0x3e
 80018f8:	2301      	movs	r3, #1
 80018fa:	f884 3051 	strb.w	r3, [r4, #81]	@ 0x51
 80018fe:	6d63      	ldr	r3, [r4, #84]	@ 0x54
 8001900:	b13b      	cbz	r3, 8001912 <SPI_DMAReceiveCplt+0x5e>
 8001902:	4620      	mov	r0, r4
 8001904:	f7ff ffc4 	bl	8001890 <HAL_SPI_ErrorCallback>
 8001908:	bd38      	pop	{r3, r4, r5, pc}
 800190a:	6859      	ldr	r1, [r3, #4]
 800190c:	f021 0101 	bic.w	r1, r1, #1
 8001910:	e7e8      	b.n	80018e4 <SPI_DMAReceiveCplt+0x30>
 8001912:	4620      	mov	r0, r4
 8001914:	f7ff ffaf 	bl	8001876 <HAL_SPI_RxCpltCallback>
 8001918:	e7f6      	b.n	8001908 <SPI_DMAReceiveCplt+0x54>

0800191a <SPI_DMATransmitReceiveCplt>:
 800191a:	b538      	push	{r3, r4, r5, lr}
 800191c:	4605      	mov	r5, r0
 800191e:	6b84      	ldr	r4, [r0, #56]	@ 0x38
 8001920:	f7ff f838 	bl	8000994 <HAL_GetTick>
 8001924:	682b      	ldr	r3, [r5, #0]
 8001926:	681b      	ldr	r3, [r3, #0]
 8001928:	05db      	lsls	r3, r3, #23
 800192a:	4602      	mov	r2, r0
 800192c:	d41e      	bmi.n	800196c <SPI_DMATransmitReceiveCplt+0x52>
 800192e:	6821      	ldr	r1, [r4, #0]
 8001930:	684b      	ldr	r3, [r1, #4]
 8001932:	f023 0320 	bic.w	r3, r3, #32
 8001936:	604b      	str	r3, [r1, #4]
 8001938:	4620      	mov	r0, r4
 800193a:	2164      	movs	r1, #100	@ 0x64
 800193c:	f7ff fe2e 	bl	800159c <SPI_EndRxTxTransaction>
 8001940:	b118      	cbz	r0, 800194a <SPI_DMATransmitReceiveCplt+0x30>
 8001942:	6d63      	ldr	r3, [r4, #84]	@ 0x54
 8001944:	f043 0320 	orr.w	r3, r3, #32
 8001948:	6563      	str	r3, [r4, #84]	@ 0x54
 800194a:	6822      	ldr	r2, [r4, #0]
 800194c:	6853      	ldr	r3, [r2, #4]
 800194e:	f023 0303 	bic.w	r3, r3, #3
 8001952:	6053      	str	r3, [r2, #4]
 8001954:	2300      	movs	r3, #0
 8001956:	86e3      	strh	r3, [r4, #54]	@ 0x36
 8001958:	87e3      	strh	r3, [r4, #62]	@ 0x3e
 800195a:	2301      	movs	r3, #1
 800195c:	f884 3051 	strb.w	r3, [r4, #81]	@ 0x51
 8001960:	6d63      	ldr	r3, [r4, #84]	@ 0x54
 8001962:	b11b      	cbz	r3, 800196c <SPI_DMATransmitReceiveCplt+0x52>
 8001964:	4620      	mov	r0, r4
 8001966:	f7ff ff93 	bl	8001890 <HAL_SPI_ErrorCallback>
 800196a:	bd38      	pop	{r3, r4, r5, pc}
 800196c:	4620      	mov	r0, r4
 800196e:	f000 f913 	bl	8001b98 <HAL_SPI_TxRxCpltCallback>
 8001972:	e7fa      	b.n	800196a <SPI_DMATransmitReceiveCplt+0x50>

08001974 <MX_FATFS_Init>:
 8001974:	b508      	push	{r3, lr}
 8001976:	4903      	ldr	r1, [pc, #12]	@ (8001984 <MX_FATFS_Init+0x10>)
 8001978:	4803      	ldr	r0, [pc, #12]	@ (8001988 <MX_FATFS_Init+0x14>)
 800197a:	f001 ff47 	bl	800380c <FATFS_LinkDriver>
 800197e:	4b03      	ldr	r3, [pc, #12]	@ (800198c <MX_FATFS_Init+0x18>)
 8001980:	7018      	strb	r0, [r3, #0]
 8001982:	bd08      	pop	{r3, pc}
 8001984:	20000390 	.word	0x20000390
 8001988:	2000000c 	.word	0x2000000c
 800198c:	20000394 	.word	0x20000394

08001990 <get_fattime>:
 8001990:	2000      	movs	r0, #0
 8001992:	4770      	bx	lr

08001994 <USER_initialize>:
 8001994:	f000 b908 	b.w	8001ba8 <USER_SPI_initialize>

08001998 <USER_status>:
 8001998:	f000 b996 	b.w	8001cc8 <USER_SPI_status>

0800199c <USER_read>:
 800199c:	f000 b99a 	b.w	8001cd4 <USER_SPI_read>

080019a0 <USER_write>:
 80019a0:	f000 b9da 	b.w	8001d58 <USER_SPI_write>

080019a4 <USER_ioctl>:
 80019a4:	f000 ba2a 	b.w	8001dfc <USER_SPI_ioctl>

080019a8 <set_sd_interface_speed>:
 80019a8:	4b09      	ldr	r3, [pc, #36]	@ (80019d0 <set_sd_interface_speed+0x28>)
 80019aa:	681b      	ldr	r3, [r3, #0]
 80019ac:	681a      	ldr	r2, [r3, #0]
 80019ae:	f022 0240 	bic.w	r2, r2, #64	@ 0x40
 80019b2:	601a      	str	r2, [r3, #0]
 80019b4:	681a      	ldr	r2, [r3, #0]
 80019b6:	f022 0238 	bic.w	r2, r2, #56	@ 0x38
 80019ba:	601a      	str	r2, [r3, #0]
 80019bc:	681a      	ldr	r2, [r3, #0]
 80019be:	ea42 02c0 	orr.w	r2, r2, r0, lsl #3
 80019c2:	601a      	str	r2, [r3, #0]
 80019c4:	681a      	ldr	r2, [r3, #0]
 80019c6:	f042 0240 	orr.w	r2, r2, #64	@ 0x40
 80019ca:	601a      	str	r2, [r3, #0]
 80019cc:	4770      	bx	lr
 80019ce:	bf00      	nop
 80019d0:	20000100 	.word	0x20000100

080019d4 <spi_rw>:
 80019d4:	4b05      	ldr	r3, [pc, #20]	@ (80019ec <spi_rw+0x18>)
 80019d6:	681b      	ldr	r3, [r3, #0]
 80019d8:	7318      	strb	r0, [r3, #12]
 80019da:	689a      	ldr	r2, [r3, #8]
 80019dc:	07d1      	lsls	r1, r2, #31
 80019de:	d5fc      	bpl.n	80019da <spi_rw+0x6>
 80019e0:	689a      	ldr	r2, [r3, #8]
 80019e2:	0612      	lsls	r2, r2, #24
 80019e4:	d4fc      	bmi.n	80019e0 <spi_rw+0xc>
 80019e6:	7b18      	ldrb	r0, [r3, #12]
 80019e8:	4770      	bx	lr
 80019ea:	bf00      	nop
 80019ec:	20000100 	.word	0x20000100

080019f0 <wait_ready>:
 80019f0:	b508      	push	{r3, lr}
 80019f2:	20ff      	movs	r0, #255	@ 0xff
 80019f4:	f7ff ffee 	bl	80019d4 <spi_rw>
 80019f8:	20ff      	movs	r0, #255	@ 0xff
 80019fa:	f7ff ffeb 	bl	80019d4 <spi_rw>
 80019fe:	28ff      	cmp	r0, #255	@ 0xff
 8001a00:	d1fa      	bne.n	80019f8 <wait_ready+0x8>
 8001a02:	bd08      	pop	{r3, pc}

08001a04 <send_cmd>:
 8001a04:	0602      	lsls	r2, r0, #24
 8001a06:	b538      	push	{r3, r4, r5, lr}
 8001a08:	4604      	mov	r4, r0
 8001a0a:	460d      	mov	r5, r1
 8001a0c:	d507      	bpl.n	8001a1e <send_cmd+0x1a>
 8001a0e:	2100      	movs	r1, #0
 8001a10:	2077      	movs	r0, #119	@ 0x77
 8001a12:	f7ff fff7 	bl	8001a04 <send_cmd>
 8001a16:	2801      	cmp	r0, #1
 8001a18:	d833      	bhi.n	8001a82 <send_cmd+0x7e>
 8001a1a:	f004 047f 	and.w	r4, r4, #127	@ 0x7f
 8001a1e:	4b1b      	ldr	r3, [pc, #108]	@ (8001a8c <send_cmd+0x88>)
 8001a20:	2210      	movs	r2, #16
 8001a22:	619a      	str	r2, [r3, #24]
 8001a24:	f44f 1280 	mov.w	r2, #1048576	@ 0x100000
 8001a28:	619a      	str	r2, [r3, #24]
 8001a2a:	f7ff ffe1 	bl	80019f0 <wait_ready>
 8001a2e:	28ff      	cmp	r0, #255	@ 0xff
 8001a30:	d12a      	bne.n	8001a88 <send_cmd+0x84>
 8001a32:	4620      	mov	r0, r4
 8001a34:	f7ff ffce 	bl	80019d4 <spi_rw>
 8001a38:	0e28      	lsrs	r0, r5, #24
 8001a3a:	f7ff ffcb 	bl	80019d4 <spi_rw>
 8001a3e:	f3c5 4007 	ubfx	r0, r5, #16, #8
 8001a42:	f7ff ffc7 	bl	80019d4 <spi_rw>
 8001a46:	f3c5 2007 	ubfx	r0, r5, #8, #8
 8001a4a:	f7ff ffc3 	bl	80019d4 <spi_rw>
 8001a4e:	b2e8      	uxtb	r0, r5
 8001a50:	f7ff ffc0 	bl	80019d4 <spi_rw>
 8001a54:	2c40      	cmp	r4, #64	@ 0x40
 8001a56:	d015      	beq.n	8001a84 <send_cmd+0x80>
 8001a58:	2c48      	cmp	r4, #72	@ 0x48
 8001a5a:	bf14      	ite	ne
 8001a5c:	2001      	movne	r0, #1
 8001a5e:	2087      	moveq	r0, #135	@ 0x87
 8001a60:	f7ff ffb8 	bl	80019d4 <spi_rw>
 8001a64:	2c4c      	cmp	r4, #76	@ 0x4c
 8001a66:	d102      	bne.n	8001a6e <send_cmd+0x6a>
 8001a68:	20ff      	movs	r0, #255	@ 0xff
 8001a6a:	f7ff ffb3 	bl	80019d4 <spi_rw>
 8001a6e:	240a      	movs	r4, #10
 8001a70:	20ff      	movs	r0, #255	@ 0xff
 8001a72:	f7ff ffaf 	bl	80019d4 <spi_rw>
 8001a76:	0603      	lsls	r3, r0, #24
 8001a78:	d503      	bpl.n	8001a82 <send_cmd+0x7e>
 8001a7a:	3c01      	subs	r4, #1
 8001a7c:	f014 04ff 	ands.w	r4, r4, #255	@ 0xff
 8001a80:	d1f6      	bne.n	8001a70 <send_cmd+0x6c>
 8001a82:	bd38      	pop	{r3, r4, r5, pc}
 8001a84:	2095      	movs	r0, #149	@ 0x95
 8001a86:	e7eb      	b.n	8001a60 <send_cmd+0x5c>
 8001a88:	20ff      	movs	r0, #255	@ 0xff
 8001a8a:	e7fa      	b.n	8001a82 <send_cmd+0x7e>
 8001a8c:	40020800 	.word	0x40020800

08001a90 <SPI_DMA_TransmitReceive>:
 8001a90:	b573      	push	{r0, r1, r4, r5, r6, lr}
 8001a92:	4e20      	ldr	r6, [pc, #128]	@ (8001b14 <SPI_DMA_TransmitReceive+0x84>)
 8001a94:	4613      	mov	r3, r2
 8001a96:	22ff      	movs	r2, #255	@ 0xff
 8001a98:	f88d 2007 	strb.w	r2, [sp, #7]
 8001a9c:	6cf2      	ldr	r2, [r6, #76]	@ 0x4c
 8001a9e:	6815      	ldr	r5, [r2, #0]
 8001aa0:	6cb2      	ldr	r2, [r6, #72]	@ 0x48
 8001aa2:	6814      	ldr	r4, [r2, #0]
 8001aa4:	6822      	ldr	r2, [r4, #0]
 8001aa6:	f022 0201 	bic.w	r2, r2, #1
 8001aaa:	6022      	str	r2, [r4, #0]
 8001aac:	682a      	ldr	r2, [r5, #0]
 8001aae:	f022 0201 	bic.w	r2, r2, #1
 8001ab2:	602a      	str	r2, [r5, #0]
 8001ab4:	6822      	ldr	r2, [r4, #0]
 8001ab6:	07d2      	lsls	r2, r2, #31
 8001ab8:	d41b      	bmi.n	8001af2 <SPI_DMA_TransmitReceive+0x62>
 8001aba:	682a      	ldr	r2, [r5, #0]
 8001abc:	07d2      	lsls	r2, r2, #31
 8001abe:	d418      	bmi.n	8001af2 <SPI_DMA_TransmitReceive+0x62>
 8001ac0:	682a      	ldr	r2, [r5, #0]
 8001ac2:	b9c0      	cbnz	r0, 8001af6 <SPI_DMA_TransmitReceive+0x66>
 8001ac4:	f422 7200 	bic.w	r2, r2, #512	@ 0x200
 8001ac8:	602a      	str	r2, [r5, #0]
 8001aca:	682a      	ldr	r2, [r5, #0]
 8001acc:	f442 6280 	orr.w	r2, r2, #1024	@ 0x400
 8001ad0:	602a      	str	r2, [r5, #0]
 8001ad2:	6822      	ldr	r2, [r4, #0]
 8001ad4:	f422 62c0 	bic.w	r2, r2, #1536	@ 0x600
 8001ad8:	6022      	str	r2, [r4, #0]
 8001ada:	460a      	mov	r2, r1
 8001adc:	f10d 0107 	add.w	r1, sp, #7
 8001ae0:	480c      	ldr	r0, [pc, #48]	@ (8001b14 <SPI_DMA_TransmitReceive+0x84>)
 8001ae2:	f7ff fe21 	bl	8001728 <HAL_SPI_TransmitReceive_DMA>
 8001ae6:	f896 3051 	ldrb.w	r3, [r6, #81]	@ 0x51
 8001aea:	2b01      	cmp	r3, #1
 8001aec:	d1fb      	bne.n	8001ae6 <SPI_DMA_TransmitReceive+0x56>
 8001aee:	b002      	add	sp, #8
 8001af0:	bd70      	pop	{r4, r5, r6, pc}
 8001af2:	bf00      	nop
 8001af4:	e7de      	b.n	8001ab4 <SPI_DMA_TransmitReceive+0x24>
 8001af6:	f422 62c0 	bic.w	r2, r2, #1536	@ 0x600
 8001afa:	602a      	str	r2, [r5, #0]
 8001afc:	6822      	ldr	r2, [r4, #0]
 8001afe:	f422 7200 	bic.w	r2, r2, #512	@ 0x200
 8001b02:	6022      	str	r2, [r4, #0]
 8001b04:	6822      	ldr	r2, [r4, #0]
 8001b06:	f442 6280 	orr.w	r2, r2, #1024	@ 0x400
 8001b0a:	6022      	str	r2, [r4, #0]
 8001b0c:	f10d 0207 	add.w	r2, sp, #7
 8001b10:	e7e6      	b.n	8001ae0 <SPI_DMA_TransmitReceive+0x50>
 8001b12:	bf00      	nop
 8001b14:	20000100 	.word	0x20000100

08001b18 <xmit_datablock>:
 8001b18:	b570      	push	{r4, r5, r6, lr}
 8001b1a:	4606      	mov	r6, r0
 8001b1c:	460d      	mov	r5, r1
 8001b1e:	f7ff ff67 	bl	80019f0 <wait_ready>
 8001b22:	28ff      	cmp	r0, #255	@ 0xff
 8001b24:	4604      	mov	r4, r0
 8001b26:	d119      	bne.n	8001b5c <xmit_datablock+0x44>
 8001b28:	4628      	mov	r0, r5
 8001b2a:	f7ff ff53 	bl	80019d4 <spi_rw>
 8001b2e:	2dfd      	cmp	r5, #253	@ 0xfd
 8001b30:	d016      	beq.n	8001b60 <xmit_datablock+0x48>
 8001b32:	f44f 7200 	mov.w	r2, #512	@ 0x200
 8001b36:	4631      	mov	r1, r6
 8001b38:	2001      	movs	r0, #1
 8001b3a:	f7ff ffa9 	bl	8001a90 <SPI_DMA_TransmitReceive>
 8001b3e:	4620      	mov	r0, r4
 8001b40:	f7ff ff48 	bl	80019d4 <spi_rw>
 8001b44:	4620      	mov	r0, r4
 8001b46:	f7ff ff45 	bl	80019d4 <spi_rw>
 8001b4a:	4620      	mov	r0, r4
 8001b4c:	f7ff ff42 	bl	80019d4 <spi_rw>
 8001b50:	f000 001f 	and.w	r0, r0, #31
 8001b54:	1f43      	subs	r3, r0, #5
 8001b56:	4258      	negs	r0, r3
 8001b58:	4158      	adcs	r0, r3
 8001b5a:	bd70      	pop	{r4, r5, r6, pc}
 8001b5c:	2000      	movs	r0, #0
 8001b5e:	e7fc      	b.n	8001b5a <xmit_datablock+0x42>
 8001b60:	2001      	movs	r0, #1
 8001b62:	e7fa      	b.n	8001b5a <xmit_datablock+0x42>

08001b64 <rcvr_datablock>:
 8001b64:	b538      	push	{r3, r4, r5, lr}
 8001b66:	4604      	mov	r4, r0
 8001b68:	460d      	mov	r5, r1
 8001b6a:	20ff      	movs	r0, #255	@ 0xff
 8001b6c:	f7ff ff32 	bl	80019d4 <spi_rw>
 8001b70:	28ff      	cmp	r0, #255	@ 0xff
 8001b72:	d0fa      	beq.n	8001b6a <rcvr_datablock+0x6>
 8001b74:	28fe      	cmp	r0, #254	@ 0xfe
 8001b76:	d10c      	bne.n	8001b92 <rcvr_datablock+0x2e>
 8001b78:	b2aa      	uxth	r2, r5
 8001b7a:	4621      	mov	r1, r4
 8001b7c:	2000      	movs	r0, #0
 8001b7e:	f7ff ff87 	bl	8001a90 <SPI_DMA_TransmitReceive>
 8001b82:	20ff      	movs	r0, #255	@ 0xff
 8001b84:	f7ff ff26 	bl	80019d4 <spi_rw>
 8001b88:	20ff      	movs	r0, #255	@ 0xff
 8001b8a:	f7ff ff23 	bl	80019d4 <spi_rw>
 8001b8e:	2001      	movs	r0, #1
 8001b90:	bd38      	pop	{r3, r4, r5, pc}
 8001b92:	2000      	movs	r0, #0
 8001b94:	e7fc      	b.n	8001b90 <rcvr_datablock+0x2c>
	...

08001b98 <HAL_SPI_TxRxCpltCallback>:
 8001b98:	4b02      	ldr	r3, [pc, #8]	@ (8001ba4 <HAL_SPI_TxRxCpltCallback+0xc>)
 8001b9a:	4283      	cmp	r3, r0
 8001b9c:	d101      	bne.n	8001ba2 <HAL_SPI_TxRxCpltCallback+0xa>
 8001b9e:	f7ff be47 	b.w	8001830 <HAL_SPI_DMAStop>
 8001ba2:	4770      	bx	lr
 8001ba4:	20000100 	.word	0x20000100

08001ba8 <USER_SPI_initialize>:
 8001ba8:	b5f7      	push	{r0, r1, r2, r4, r5, r6, r7, lr}
 8001baa:	4e44      	ldr	r6, [pc, #272]	@ (8001cbc <USER_SPI_initialize+0x114>)
 8001bac:	2310      	movs	r3, #16
 8001bae:	61b3      	str	r3, [r6, #24]
 8001bb0:	2006      	movs	r0, #6
 8001bb2:	f7ff fef9 	bl	80019a8 <set_sd_interface_speed>
 8001bb6:	f44f 1380 	mov.w	r3, #1048576	@ 0x100000
 8001bba:	61b3      	str	r3, [r6, #24]
 8001bbc:	250a      	movs	r5, #10
 8001bbe:	20ff      	movs	r0, #255	@ 0xff
 8001bc0:	3d01      	subs	r5, #1
 8001bc2:	f7ff ff07 	bl	80019d4 <spi_rw>
 8001bc6:	f015 05ff 	ands.w	r5, r5, #255	@ 0xff
 8001bca:	d1f8      	bne.n	8001bbe <USER_SPI_initialize+0x16>
 8001bcc:	4629      	mov	r1, r5
 8001bce:	2040      	movs	r0, #64	@ 0x40
 8001bd0:	f7ff ff18 	bl	8001a04 <send_cmd>
 8001bd4:	2801      	cmp	r0, #1
 8001bd6:	4604      	mov	r4, r0
 8001bd8:	d011      	beq.n	8001bfe <USER_SPI_initialize+0x56>
 8001bda:	2400      	movs	r4, #0
 8001bdc:	4b38      	ldr	r3, [pc, #224]	@ (8001cc0 <USER_SPI_initialize+0x118>)
 8001bde:	4d39      	ldr	r5, [pc, #228]	@ (8001cc4 <USER_SPI_initialize+0x11c>)
 8001be0:	701c      	strb	r4, [r3, #0]
 8001be2:	2710      	movs	r7, #16
 8001be4:	61b7      	str	r7, [r6, #24]
 8001be6:	782b      	ldrb	r3, [r5, #0]
 8001be8:	2c00      	cmp	r4, #0
 8001bea:	d059      	beq.n	8001ca0 <USER_SPI_initialize+0xf8>
 8001bec:	f003 03fe 	and.w	r3, r3, #254	@ 0xfe
 8001bf0:	2001      	movs	r0, #1
 8001bf2:	702b      	strb	r3, [r5, #0]
 8001bf4:	f7ff fed8 	bl	80019a8 <set_sd_interface_speed>
 8001bf8:	7828      	ldrb	r0, [r5, #0]
 8001bfa:	b003      	add	sp, #12
 8001bfc:	bdf0      	pop	{r4, r5, r6, r7, pc}
 8001bfe:	f44f 71d5 	mov.w	r1, #426	@ 0x1aa
 8001c02:	2048      	movs	r0, #72	@ 0x48
 8001c04:	f7ff fefe 	bl	8001a04 <send_cmd>
 8001c08:	2801      	cmp	r0, #1
 8001c0a:	d132      	bne.n	8001c72 <USER_SPI_initialize+0xca>
 8001c0c:	ad01      	add	r5, sp, #4
 8001c0e:	462f      	mov	r7, r5
 8001c10:	2404      	movs	r4, #4
 8001c12:	20ff      	movs	r0, #255	@ 0xff
 8001c14:	f7ff fede 	bl	80019d4 <spi_rw>
 8001c18:	3c01      	subs	r4, #1
 8001c1a:	f014 04ff 	ands.w	r4, r4, #255	@ 0xff
 8001c1e:	f807 0b01 	strb.w	r0, [r7], #1
 8001c22:	d1f6      	bne.n	8001c12 <USER_SPI_initialize+0x6a>
 8001c24:	f89d 3006 	ldrb.w	r3, [sp, #6]
 8001c28:	2b01      	cmp	r3, #1
 8001c2a:	d1d6      	bne.n	8001bda <USER_SPI_initialize+0x32>
 8001c2c:	f89d 3007 	ldrb.w	r3, [sp, #7]
 8001c30:	2baa      	cmp	r3, #170	@ 0xaa
 8001c32:	d1d2      	bne.n	8001bda <USER_SPI_initialize+0x32>
 8001c34:	f04f 4180 	mov.w	r1, #1073741824	@ 0x40000000
 8001c38:	20e9      	movs	r0, #233	@ 0xe9
 8001c3a:	f7ff fee3 	bl	8001a04 <send_cmd>
 8001c3e:	4601      	mov	r1, r0
 8001c40:	2800      	cmp	r0, #0
 8001c42:	d1f7      	bne.n	8001c34 <USER_SPI_initialize+0x8c>
 8001c44:	207a      	movs	r0, #122	@ 0x7a
 8001c46:	f7ff fedd 	bl	8001a04 <send_cmd>
 8001c4a:	2800      	cmp	r0, #0
 8001c4c:	d1c5      	bne.n	8001bda <USER_SPI_initialize+0x32>
 8001c4e:	2404      	movs	r4, #4
 8001c50:	20ff      	movs	r0, #255	@ 0xff
 8001c52:	f7ff febf 	bl	80019d4 <spi_rw>
 8001c56:	3c01      	subs	r4, #1
 8001c58:	f014 04ff 	ands.w	r4, r4, #255	@ 0xff
 8001c5c:	f805 0b01 	strb.w	r0, [r5], #1
 8001c60:	d1f6      	bne.n	8001c50 <USER_SPI_initialize+0xa8>
 8001c62:	f89d 3004 	ldrb.w	r3, [sp, #4]
 8001c66:	f013 0f40 	tst.w	r3, #64	@ 0x40
 8001c6a:	bf0c      	ite	eq
 8001c6c:	2404      	moveq	r4, #4
 8001c6e:	240c      	movne	r4, #12
 8001c70:	e7b4      	b.n	8001bdc <USER_SPI_initialize+0x34>
 8001c72:	4629      	mov	r1, r5
 8001c74:	20e9      	movs	r0, #233	@ 0xe9
 8001c76:	f7ff fec5 	bl	8001a04 <send_cmd>
 8001c7a:	2801      	cmp	r0, #1
 8001c7c:	bf96      	itet	ls
 8001c7e:	2402      	movls	r4, #2
 8001c80:	2541      	movhi	r5, #65	@ 0x41
 8001c82:	25e9      	movls	r5, #233	@ 0xe9
 8001c84:	2100      	movs	r1, #0
 8001c86:	4628      	mov	r0, r5
 8001c88:	f7ff febc 	bl	8001a04 <send_cmd>
 8001c8c:	2800      	cmp	r0, #0
 8001c8e:	d1f9      	bne.n	8001c84 <USER_SPI_initialize+0xdc>
 8001c90:	f44f 7100 	mov.w	r1, #512	@ 0x200
 8001c94:	2050      	movs	r0, #80	@ 0x50
 8001c96:	f7ff feb5 	bl	8001a04 <send_cmd>
 8001c9a:	2800      	cmp	r0, #0
 8001c9c:	d19d      	bne.n	8001bda <USER_SPI_initialize+0x32>
 8001c9e:	e79d      	b.n	8001bdc <USER_SPI_initialize+0x34>
 8001ca0:	07db      	lsls	r3, r3, #31
 8001ca2:	d405      	bmi.n	8001cb0 <USER_SPI_initialize+0x108>
 8001ca4:	f44f 1380 	mov.w	r3, #1048576	@ 0x100000
 8001ca8:	61b3      	str	r3, [r6, #24]
 8001caa:	f7ff fea1 	bl	80019f0 <wait_ready>
 8001cae:	61b7      	str	r7, [r6, #24]
 8001cb0:	782b      	ldrb	r3, [r5, #0]
 8001cb2:	f043 0301 	orr.w	r3, r3, #1
 8001cb6:	702b      	strb	r3, [r5, #0]
 8001cb8:	e79e      	b.n	8001bf8 <USER_SPI_initialize+0x50>
 8001cba:	bf00      	nop
 8001cbc:	40020800 	.word	0x40020800
 8001cc0:	20000395 	.word	0x20000395
 8001cc4:	20000020 	.word	0x20000020

08001cc8 <USER_SPI_status>:
 8001cc8:	4b01      	ldr	r3, [pc, #4]	@ (8001cd0 <USER_SPI_status+0x8>)
 8001cca:	7818      	ldrb	r0, [r3, #0]
 8001ccc:	4770      	bx	lr
 8001cce:	bf00      	nop
 8001cd0:	20000020 	.word	0x20000020

08001cd4 <USER_SPI_read>:
 8001cd4:	b538      	push	{r3, r4, r5, lr}
 8001cd6:	460d      	mov	r5, r1
 8001cd8:	461c      	mov	r4, r3
 8001cda:	4611      	mov	r1, r2
 8001cdc:	b38b      	cbz	r3, 8001d42 <USER_SPI_read+0x6e>
 8001cde:	4b1b      	ldr	r3, [pc, #108]	@ (8001d4c <USER_SPI_read+0x78>)
 8001ce0:	781b      	ldrb	r3, [r3, #0]
 8001ce2:	07da      	lsls	r2, r3, #31
 8001ce4:	d42f      	bmi.n	8001d46 <USER_SPI_read+0x72>
 8001ce6:	4b1a      	ldr	r3, [pc, #104]	@ (8001d50 <USER_SPI_read+0x7c>)
 8001ce8:	781b      	ldrb	r3, [r3, #0]
 8001cea:	071b      	lsls	r3, r3, #28
 8001cec:	bf58      	it	pl
 8001cee:	0249      	lslpl	r1, r1, #9
 8001cf0:	2c01      	cmp	r4, #1
 8001cf2:	d112      	bne.n	8001d1a <USER_SPI_read+0x46>
 8001cf4:	2051      	movs	r0, #81	@ 0x51
 8001cf6:	f7ff fe85 	bl	8001a04 <send_cmd>
 8001cfa:	b938      	cbnz	r0, 8001d0c <USER_SPI_read+0x38>
 8001cfc:	f44f 7100 	mov.w	r1, #512	@ 0x200
 8001d00:	4628      	mov	r0, r5
 8001d02:	f7ff ff2f 	bl	8001b64 <rcvr_datablock>
 8001d06:	fab0 f480 	clz	r4, r0
 8001d0a:	0964      	lsrs	r4, r4, #5
 8001d0c:	4b11      	ldr	r3, [pc, #68]	@ (8001d54 <USER_SPI_read+0x80>)
 8001d0e:	2210      	movs	r2, #16
 8001d10:	1e20      	subs	r0, r4, #0
 8001d12:	619a      	str	r2, [r3, #24]
 8001d14:	bf18      	it	ne
 8001d16:	2001      	movne	r0, #1
 8001d18:	bd38      	pop	{r3, r4, r5, pc}
 8001d1a:	2052      	movs	r0, #82	@ 0x52
 8001d1c:	f7ff fe72 	bl	8001a04 <send_cmd>
 8001d20:	2800      	cmp	r0, #0
 8001d22:	d1f3      	bne.n	8001d0c <USER_SPI_read+0x38>
 8001d24:	f44f 7100 	mov.w	r1, #512	@ 0x200
 8001d28:	4628      	mov	r0, r5
 8001d2a:	f7ff ff1b 	bl	8001b64 <rcvr_datablock>
 8001d2e:	b118      	cbz	r0, 8001d38 <USER_SPI_read+0x64>
 8001d30:	3c01      	subs	r4, #1
 8001d32:	f505 7500 	add.w	r5, r5, #512	@ 0x200
 8001d36:	d1f5      	bne.n	8001d24 <USER_SPI_read+0x50>
 8001d38:	2100      	movs	r1, #0
 8001d3a:	204c      	movs	r0, #76	@ 0x4c
 8001d3c:	f7ff fe62 	bl	8001a04 <send_cmd>
 8001d40:	e7e4      	b.n	8001d0c <USER_SPI_read+0x38>
 8001d42:	2004      	movs	r0, #4
 8001d44:	e7e8      	b.n	8001d18 <USER_SPI_read+0x44>
 8001d46:	2003      	movs	r0, #3
 8001d48:	e7e6      	b.n	8001d18 <USER_SPI_read+0x44>
 8001d4a:	bf00      	nop
 8001d4c:	20000020 	.word	0x20000020
 8001d50:	20000395 	.word	0x20000395
 8001d54:	40020800 	.word	0x40020800

08001d58 <USER_SPI_write>:
 8001d58:	b570      	push	{r4, r5, r6, lr}
 8001d5a:	460e      	mov	r6, r1
 8001d5c:	4615      	mov	r5, r2
 8001d5e:	461c      	mov	r4, r3
 8001d60:	2b00      	cmp	r3, #0
 8001d62:	d03e      	beq.n	8001de2 <USER_SPI_write+0x8a>
 8001d64:	4b22      	ldr	r3, [pc, #136]	@ (8001df0 <USER_SPI_write+0x98>)
 8001d66:	781a      	ldrb	r2, [r3, #0]
 8001d68:	07d0      	lsls	r0, r2, #31
 8001d6a:	d43c      	bmi.n	8001de6 <USER_SPI_write+0x8e>
 8001d6c:	781b      	ldrb	r3, [r3, #0]
 8001d6e:	0759      	lsls	r1, r3, #29
 8001d70:	d43b      	bmi.n	8001dea <USER_SPI_write+0x92>
 8001d72:	4b20      	ldr	r3, [pc, #128]	@ (8001df4 <USER_SPI_write+0x9c>)
 8001d74:	781b      	ldrb	r3, [r3, #0]
 8001d76:	071a      	lsls	r2, r3, #28
 8001d78:	bf58      	it	pl
 8001d7a:	026d      	lslpl	r5, r5, #9
 8001d7c:	2c01      	cmp	r4, #1
 8001d7e:	d112      	bne.n	8001da6 <USER_SPI_write+0x4e>
 8001d80:	4629      	mov	r1, r5
 8001d82:	2058      	movs	r0, #88	@ 0x58
 8001d84:	f7ff fe3e 	bl	8001a04 <send_cmd>
 8001d88:	bb48      	cbnz	r0, 8001dde <USER_SPI_write+0x86>
 8001d8a:	21fe      	movs	r1, #254	@ 0xfe
 8001d8c:	4630      	mov	r0, r6
 8001d8e:	f7ff fec3 	bl	8001b18 <xmit_datablock>
 8001d92:	fab0 f480 	clz	r4, r0
 8001d96:	0964      	lsrs	r4, r4, #5
 8001d98:	4b17      	ldr	r3, [pc, #92]	@ (8001df8 <USER_SPI_write+0xa0>)
 8001d9a:	2210      	movs	r2, #16
 8001d9c:	1e20      	subs	r0, r4, #0
 8001d9e:	619a      	str	r2, [r3, #24]
 8001da0:	bf18      	it	ne
 8001da2:	2001      	movne	r0, #1
 8001da4:	bd70      	pop	{r4, r5, r6, pc}
 8001da6:	f013 0f06 	tst.w	r3, #6
 8001daa:	d003      	beq.n	8001db4 <USER_SPI_write+0x5c>
 8001dac:	4621      	mov	r1, r4
 8001dae:	20d7      	movs	r0, #215	@ 0xd7
 8001db0:	f7ff fe28 	bl	8001a04 <send_cmd>
 8001db4:	4629      	mov	r1, r5
 8001db6:	2059      	movs	r0, #89	@ 0x59
 8001db8:	f7ff fe24 	bl	8001a04 <send_cmd>
 8001dbc:	2800      	cmp	r0, #0
 8001dbe:	d1eb      	bne.n	8001d98 <USER_SPI_write+0x40>
 8001dc0:	21fc      	movs	r1, #252	@ 0xfc
 8001dc2:	4630      	mov	r0, r6
 8001dc4:	f7ff fea8 	bl	8001b18 <xmit_datablock>
 8001dc8:	b118      	cbz	r0, 8001dd2 <USER_SPI_write+0x7a>
 8001dca:	3c01      	subs	r4, #1
 8001dcc:	f506 7600 	add.w	r6, r6, #512	@ 0x200
 8001dd0:	d1f6      	bne.n	8001dc0 <USER_SPI_write+0x68>
 8001dd2:	21fd      	movs	r1, #253	@ 0xfd
 8001dd4:	2000      	movs	r0, #0
 8001dd6:	f7ff fe9f 	bl	8001b18 <xmit_datablock>
 8001dda:	2800      	cmp	r0, #0
 8001ddc:	d1dc      	bne.n	8001d98 <USER_SPI_write+0x40>
 8001dde:	2401      	movs	r4, #1
 8001de0:	e7da      	b.n	8001d98 <USER_SPI_write+0x40>
 8001de2:	2004      	movs	r0, #4
 8001de4:	e7de      	b.n	8001da4 <USER_SPI_write+0x4c>
 8001de6:	2003      	movs	r0, #3
 8001de8:	e7dc      	b.n	8001da4 <USER_SPI_write+0x4c>
 8001dea:	2002      	movs	r0, #2
 8001dec:	e7da      	b.n	8001da4 <USER_SPI_write+0x4c>
 8001dee:	bf00      	nop
 8001df0:	20000020 	.word	0x20000020
 8001df4:	20000395 	.word	0x20000395
 8001df8:	40020800 	.word	0x40020800

08001dfc <USER_SPI_ioctl>:
 8001dfc:	b57f      	push	{r0, r1, r2, r3, r4, r5, r6, lr}
 8001dfe:	4b6e      	ldr	r3, [pc, #440]	@ (8001fb8 <USER_SPI_ioctl+0x1bc>)
 8001e00:	781c      	ldrb	r4, [r3, #0]
 8001e02:	f014 0401 	ands.w	r4, r4, #1
 8001e06:	4615      	mov	r5, r2
 8001e08:	f040 80d4 	bne.w	8001fb4 <USER_SPI_ioctl+0x1b8>
 8001e0c:	290e      	cmp	r1, #14
 8001e0e:	f200 80cf 	bhi.w	8001fb0 <USER_SPI_ioctl+0x1b4>
 8001e12:	e8df f001 	tbb	[pc, r1]
 8001e16:	1408      	.short	0x1408
 8001e18:	cdcd514d 	.word	0xcdcd514d
 8001e1c:	cdcdcdcd 	.word	0xcdcdcdcd
 8001e20:	b1ae9f9b 	.word	0xb1ae9f9b
 8001e24:	c1          	.byte	0xc1
 8001e25:	00          	.byte	0x00
 8001e26:	f7ff fde3 	bl	80019f0 <wait_ready>
 8001e2a:	f1b0 04ff 	subs.w	r4, r0, #255	@ 0xff
 8001e2e:	bf18      	it	ne
 8001e30:	2401      	movne	r4, #1
 8001e32:	4b62      	ldr	r3, [pc, #392]	@ (8001fbc <USER_SPI_ioctl+0x1c0>)
 8001e34:	2210      	movs	r2, #16
 8001e36:	619a      	str	r2, [r3, #24]
 8001e38:	4620      	mov	r0, r4
 8001e3a:	b004      	add	sp, #16
 8001e3c:	bd70      	pop	{r4, r5, r6, pc}
 8001e3e:	2100      	movs	r1, #0
 8001e40:	2049      	movs	r0, #73	@ 0x49
 8001e42:	f7ff fddf 	bl	8001a04 <send_cmd>
 8001e46:	b108      	cbz	r0, 8001e4c <USER_SPI_ioctl+0x50>
 8001e48:	2401      	movs	r4, #1
 8001e4a:	e7f2      	b.n	8001e32 <USER_SPI_ioctl+0x36>
 8001e4c:	2110      	movs	r1, #16
 8001e4e:	4668      	mov	r0, sp
 8001e50:	f7ff fe88 	bl	8001b64 <rcvr_datablock>
 8001e54:	2800      	cmp	r0, #0
 8001e56:	d0f7      	beq.n	8001e48 <USER_SPI_ioctl+0x4c>
 8001e58:	f89d 1000 	ldrb.w	r1, [sp]
 8001e5c:	f89d 3009 	ldrb.w	r3, [sp, #9]
 8001e60:	f89d 2008 	ldrb.w	r2, [sp, #8]
 8001e64:	0989      	lsrs	r1, r1, #6
 8001e66:	2901      	cmp	r1, #1
 8001e68:	d106      	bne.n	8001e78 <USER_SPI_ioctl+0x7c>
 8001e6a:	3301      	adds	r3, #1
 8001e6c:	eb03 2302 	add.w	r3, r3, r2, lsl #8
 8001e70:	b29b      	uxth	r3, r3
 8001e72:	029b      	lsls	r3, r3, #10
 8001e74:	602b      	str	r3, [r5, #0]
 8001e76:	e7dc      	b.n	8001e32 <USER_SPI_ioctl+0x36>
 8001e78:	f89d 1007 	ldrb.w	r1, [sp, #7]
 8001e7c:	f89d 000a 	ldrb.w	r0, [sp, #10]
 8001e80:	0992      	lsrs	r2, r2, #6
 8001e82:	eb02 0281 	add.w	r2, r2, r1, lsl #2
 8001e86:	f89d 1006 	ldrb.w	r1, [sp, #6]
 8001e8a:	0289      	lsls	r1, r1, #10
 8001e8c:	f401 6140 	and.w	r1, r1, #3072	@ 0xc00
 8001e90:	3201      	adds	r2, #1
 8001e92:	440a      	add	r2, r1
 8001e94:	f89d 1005 	ldrb.w	r1, [sp, #5]
 8001e98:	005b      	lsls	r3, r3, #1
 8001e9a:	f001 010f 	and.w	r1, r1, #15
 8001e9e:	eb01 11d0 	add.w	r1, r1, r0, lsr #7
 8001ea2:	f003 0306 	and.w	r3, r3, #6
 8001ea6:	440b      	add	r3, r1
 8001ea8:	3b07      	subs	r3, #7
 8001eaa:	fa02 f303 	lsl.w	r3, r2, r3
 8001eae:	e7e1      	b.n	8001e74 <USER_SPI_ioctl+0x78>
 8001eb0:	f44f 7300 	mov.w	r3, #512	@ 0x200
 8001eb4:	8013      	strh	r3, [r2, #0]
 8001eb6:	e7bc      	b.n	8001e32 <USER_SPI_ioctl+0x36>
 8001eb8:	4e41      	ldr	r6, [pc, #260]	@ (8001fc0 <USER_SPI_ioctl+0x1c4>)
 8001eba:	7831      	ldrb	r1, [r6, #0]
 8001ebc:	f011 0104 	ands.w	r1, r1, #4
 8001ec0:	d01c      	beq.n	8001efc <USER_SPI_ioctl+0x100>
 8001ec2:	2100      	movs	r1, #0
 8001ec4:	20cd      	movs	r0, #205	@ 0xcd
 8001ec6:	f7ff fd9d 	bl	8001a04 <send_cmd>
 8001eca:	2800      	cmp	r0, #0
 8001ecc:	d1bc      	bne.n	8001e48 <USER_SPI_ioctl+0x4c>
 8001ece:	20ff      	movs	r0, #255	@ 0xff
 8001ed0:	f7ff fd80 	bl	80019d4 <spi_rw>
 8001ed4:	2110      	movs	r1, #16
 8001ed6:	4668      	mov	r0, sp
 8001ed8:	f7ff fe44 	bl	8001b64 <rcvr_datablock>
 8001edc:	2800      	cmp	r0, #0
 8001ede:	d0b3      	beq.n	8001e48 <USER_SPI_ioctl+0x4c>
 8001ee0:	2630      	movs	r6, #48	@ 0x30
 8001ee2:	20ff      	movs	r0, #255	@ 0xff
 8001ee4:	3e01      	subs	r6, #1
 8001ee6:	f7ff fd75 	bl	80019d4 <spi_rw>
 8001eea:	f016 06ff 	ands.w	r6, r6, #255	@ 0xff
 8001eee:	d1f8      	bne.n	8001ee2 <USER_SPI_ioctl+0xe6>
 8001ef0:	f89d 200a 	ldrb.w	r2, [sp, #10]
 8001ef4:	2310      	movs	r3, #16
 8001ef6:	0912      	lsrs	r2, r2, #4
 8001ef8:	4093      	lsls	r3, r2
 8001efa:	e7bb      	b.n	8001e74 <USER_SPI_ioctl+0x78>
 8001efc:	2049      	movs	r0, #73	@ 0x49
 8001efe:	f7ff fd81 	bl	8001a04 <send_cmd>
 8001f02:	2800      	cmp	r0, #0
 8001f04:	d1a0      	bne.n	8001e48 <USER_SPI_ioctl+0x4c>
 8001f06:	2110      	movs	r1, #16
 8001f08:	4668      	mov	r0, sp
 8001f0a:	f7ff fe2b 	bl	8001b64 <rcvr_datablock>
 8001f0e:	2800      	cmp	r0, #0
 8001f10:	d09a      	beq.n	8001e48 <USER_SPI_ioctl+0x4c>
 8001f12:	7832      	ldrb	r2, [r6, #0]
 8001f14:	f89d 300a 	ldrb.w	r3, [sp, #10]
 8001f18:	f89d 100b 	ldrb.w	r1, [sp, #11]
 8001f1c:	0792      	lsls	r2, r2, #30
 8001f1e:	d50a      	bpl.n	8001f36 <USER_SPI_ioctl+0x13a>
 8001f20:	f89d 200d 	ldrb.w	r2, [sp, #13]
 8001f24:	005b      	lsls	r3, r3, #1
 8001f26:	f003 037e 	and.w	r3, r3, #126	@ 0x7e
 8001f2a:	eb03 13d1 	add.w	r3, r3, r1, lsr #7
 8001f2e:	0992      	lsrs	r2, r2, #6
 8001f30:	3301      	adds	r3, #1
 8001f32:	3a01      	subs	r2, #1
 8001f34:	e7e0      	b.n	8001ef8 <USER_SPI_ioctl+0xfc>
 8001f36:	00ca      	lsls	r2, r1, #3
 8001f38:	f002 0218 	and.w	r2, r2, #24
 8001f3c:	f3c3 0384 	ubfx	r3, r3, #2, #5
 8001f40:	eb02 1251 	add.w	r2, r2, r1, lsr #5
 8001f44:	3301      	adds	r3, #1
 8001f46:	fb02 3303 	mla	r3, r2, r3, r3
 8001f4a:	e793      	b.n	8001e74 <USER_SPI_ioctl+0x78>
 8001f4c:	4b1c      	ldr	r3, [pc, #112]	@ (8001fc0 <USER_SPI_ioctl+0x1c4>)
 8001f4e:	781b      	ldrb	r3, [r3, #0]
 8001f50:	7013      	strb	r3, [r2, #0]
 8001f52:	e76e      	b.n	8001e32 <USER_SPI_ioctl+0x36>
 8001f54:	2100      	movs	r1, #0
 8001f56:	2049      	movs	r0, #73	@ 0x49
 8001f58:	f7ff fd54 	bl	8001a04 <send_cmd>
 8001f5c:	2800      	cmp	r0, #0
 8001f5e:	f47f af73 	bne.w	8001e48 <USER_SPI_ioctl+0x4c>
 8001f62:	2110      	movs	r1, #16
 8001f64:	4628      	mov	r0, r5
 8001f66:	f7ff fdfd 	bl	8001b64 <rcvr_datablock>
 8001f6a:	fab0 f480 	clz	r4, r0
 8001f6e:	0964      	lsrs	r4, r4, #5
 8001f70:	e75f      	b.n	8001e32 <USER_SPI_ioctl+0x36>
 8001f72:	2100      	movs	r1, #0
 8001f74:	204a      	movs	r0, #74	@ 0x4a
 8001f76:	e7ef      	b.n	8001f58 <USER_SPI_ioctl+0x15c>
 8001f78:	2100      	movs	r1, #0
 8001f7a:	207a      	movs	r0, #122	@ 0x7a
 8001f7c:	f7ff fd42 	bl	8001a04 <send_cmd>
 8001f80:	2800      	cmp	r0, #0
 8001f82:	f47f af61 	bne.w	8001e48 <USER_SPI_ioctl+0x4c>
 8001f86:	1d2e      	adds	r6, r5, #4
 8001f88:	20ff      	movs	r0, #255	@ 0xff
 8001f8a:	f7ff fd23 	bl	80019d4 <spi_rw>
 8001f8e:	f805 0b01 	strb.w	r0, [r5], #1
 8001f92:	42ae      	cmp	r6, r5
 8001f94:	d1f8      	bne.n	8001f88 <USER_SPI_ioctl+0x18c>
 8001f96:	e74c      	b.n	8001e32 <USER_SPI_ioctl+0x36>
 8001f98:	2100      	movs	r1, #0
 8001f9a:	20cd      	movs	r0, #205	@ 0xcd
 8001f9c:	f7ff fd32 	bl	8001a04 <send_cmd>
 8001fa0:	2800      	cmp	r0, #0
 8001fa2:	f47f af51 	bne.w	8001e48 <USER_SPI_ioctl+0x4c>
 8001fa6:	20ff      	movs	r0, #255	@ 0xff
 8001fa8:	f7ff fd14 	bl	80019d4 <spi_rw>
 8001fac:	2140      	movs	r1, #64	@ 0x40
 8001fae:	e7d9      	b.n	8001f64 <USER_SPI_ioctl+0x168>
 8001fb0:	2404      	movs	r4, #4
 8001fb2:	e73e      	b.n	8001e32 <USER_SPI_ioctl+0x36>
 8001fb4:	2403      	movs	r4, #3
 8001fb6:	e73f      	b.n	8001e38 <USER_SPI_ioctl+0x3c>
 8001fb8:	20000020 	.word	0x20000020
 8001fbc:	40020800 	.word	0x40020800
 8001fc0:	20000395 	.word	0x20000395

08001fc4 <disk_status>:
 8001fc4:	4b03      	ldr	r3, [pc, #12]	@ (8001fd4 <disk_status+0x10>)
 8001fc6:	181a      	adds	r2, r3, r0
 8001fc8:	eb03 0380 	add.w	r3, r3, r0, lsl #2
 8001fcc:	7a10      	ldrb	r0, [r2, #8]
 8001fce:	685b      	ldr	r3, [r3, #4]
 8001fd0:	685b      	ldr	r3, [r3, #4]
 8001fd2:	4718      	bx	r3
 8001fd4:	200005f0 	.word	0x200005f0

08001fd8 <disk_initialize>:
 8001fd8:	b538      	push	{r3, r4, r5, lr}
 8001fda:	4d08      	ldr	r5, [pc, #32]	@ (8001ffc <disk_initialize+0x24>)
 8001fdc:	5c2b      	ldrb	r3, [r5, r0]
 8001fde:	4604      	mov	r4, r0
 8001fe0:	b94b      	cbnz	r3, 8001ff6 <disk_initialize+0x1e>
 8001fe2:	eb05 0280 	add.w	r2, r5, r0, lsl #2
 8001fe6:	182b      	adds	r3, r5, r0
 8001fe8:	6852      	ldr	r2, [r2, #4]
 8001fea:	7a18      	ldrb	r0, [r3, #8]
 8001fec:	6812      	ldr	r2, [r2, #0]
 8001fee:	4790      	blx	r2
 8001ff0:	b910      	cbnz	r0, 8001ff8 <disk_initialize+0x20>
 8001ff2:	2301      	movs	r3, #1
 8001ff4:	552b      	strb	r3, [r5, r4]
 8001ff6:	2000      	movs	r0, #0
 8001ff8:	bd38      	pop	{r3, r4, r5, pc}
 8001ffa:	bf00      	nop
 8001ffc:	200005f0 	.word	0x200005f0

08002000 <disk_read>:
 8002000:	b430      	push	{r4, r5}
 8002002:	4c05      	ldr	r4, [pc, #20]	@ (8002018 <disk_read+0x18>)
 8002004:	1825      	adds	r5, r4, r0
 8002006:	eb04 0480 	add.w	r4, r4, r0, lsl #2
 800200a:	6860      	ldr	r0, [r4, #4]
 800200c:	6884      	ldr	r4, [r0, #8]
 800200e:	7a28      	ldrb	r0, [r5, #8]
 8002010:	46a4      	mov	ip, r4
 8002012:	bc30      	pop	{r4, r5}
 8002014:	4760      	bx	ip
 8002016:	bf00      	nop
 8002018:	200005f0 	.word	0x200005f0

0800201c <disk_write>:
 800201c:	b430      	push	{r4, r5}
 800201e:	4c05      	ldr	r4, [pc, #20]	@ (8002034 <disk_write+0x18>)
 8002020:	1825      	adds	r5, r4, r0
 8002022:	eb04 0480 	add.w	r4, r4, r0, lsl #2
 8002026:	6860      	ldr	r0, [r4, #4]
 8002028:	68c4      	ldr	r4, [r0, #12]
 800202a:	7a28      	ldrb	r0, [r5, #8]
 800202c:	46a4      	mov	ip, r4
 800202e:	bc30      	pop	{r4, r5}
 8002030:	4760      	bx	ip
 8002032:	bf00      	nop
 8002034:	200005f0 	.word	0x200005f0

08002038 <disk_ioctl>:
 8002038:	4b05      	ldr	r3, [pc, #20]	@ (8002050 <disk_ioctl+0x18>)
 800203a:	b410      	push	{r4}
 800203c:	181c      	adds	r4, r3, r0
 800203e:	eb03 0380 	add.w	r3, r3, r0, lsl #2
 8002042:	7a20      	ldrb	r0, [r4, #8]
 8002044:	685b      	ldr	r3, [r3, #4]
 8002046:	f85d 4b04 	ldr.w	r4, [sp], #4
 800204a:	691b      	ldr	r3, [r3, #16]
 800204c:	4718      	bx	r3
 800204e:	bf00      	nop
 8002050:	200005f0 	.word	0x200005f0

08002054 <ld_dword>:
 8002054:	6800      	ldr	r0, [r0, #0]
 8002056:	4770      	bx	lr

08002058 <st_dword>:
 8002058:	0a0b      	lsrs	r3, r1, #8
 800205a:	7001      	strb	r1, [r0, #0]
 800205c:	7043      	strb	r3, [r0, #1]
 800205e:	0c0b      	lsrs	r3, r1, #16
 8002060:	0e09      	lsrs	r1, r1, #24
 8002062:	7083      	strb	r3, [r0, #2]
 8002064:	70c1      	strb	r1, [r0, #3]
 8002066:	4770      	bx	lr

08002068 <mem_set>:
 8002068:	4402      	add	r2, r0
 800206a:	f800 1b01 	strb.w	r1, [r0], #1
 800206e:	4290      	cmp	r0, r2
 8002070:	d1fb      	bne.n	800206a <mem_set+0x2>
 8002072:	4770      	bx	lr

08002074 <chk_lock>:
 8002074:	4b15      	ldr	r3, [pc, #84]	@ (80020cc <chk_lock+0x58>)
 8002076:	b5f0      	push	{r4, r5, r6, r7, lr}
 8002078:	2400      	movs	r4, #0
 800207a:	4622      	mov	r2, r4
 800207c:	461d      	mov	r5, r3
 800207e:	681e      	ldr	r6, [r3, #0]
 8002080:	b16e      	cbz	r6, 800209e <chk_lock+0x2a>
 8002082:	6807      	ldr	r7, [r0, #0]
 8002084:	42be      	cmp	r6, r7
 8002086:	d10b      	bne.n	80020a0 <chk_lock+0x2c>
 8002088:	685f      	ldr	r7, [r3, #4]
 800208a:	6886      	ldr	r6, [r0, #8]
 800208c:	42b7      	cmp	r7, r6
 800208e:	d107      	bne.n	80020a0 <chk_lock+0x2c>
 8002090:	689f      	ldr	r7, [r3, #8]
 8002092:	6946      	ldr	r6, [r0, #20]
 8002094:	42b7      	cmp	r7, r6
 8002096:	d103      	bne.n	80020a0 <chk_lock+0x2c>
 8002098:	b169      	cbz	r1, 80020b6 <chk_lock+0x42>
 800209a:	2010      	movs	r0, #16
 800209c:	e00a      	b.n	80020b4 <chk_lock+0x40>
 800209e:	2401      	movs	r4, #1
 80020a0:	3201      	adds	r2, #1
 80020a2:	2a05      	cmp	r2, #5
 80020a4:	f103 0310 	add.w	r3, r3, #16
 80020a8:	d1e9      	bne.n	800207e <chk_lock+0xa>
 80020aa:	b96c      	cbnz	r4, 80020c8 <chk_lock+0x54>
 80020ac:	2902      	cmp	r1, #2
 80020ae:	bf14      	ite	ne
 80020b0:	2012      	movne	r0, #18
 80020b2:	2000      	moveq	r0, #0
 80020b4:	bdf0      	pop	{r4, r5, r6, r7, pc}
 80020b6:	eb05 1302 	add.w	r3, r5, r2, lsl #4
 80020ba:	8998      	ldrh	r0, [r3, #12]
 80020bc:	f5a0 7380 	sub.w	r3, r0, #256	@ 0x100
 80020c0:	4258      	negs	r0, r3
 80020c2:	4158      	adcs	r0, r3
 80020c4:	0100      	lsls	r0, r0, #4
 80020c6:	e7f5      	b.n	80020b4 <chk_lock+0x40>
 80020c8:	2000      	movs	r0, #0
 80020ca:	e7f3      	b.n	80020b4 <chk_lock+0x40>
 80020cc:	20000598 	.word	0x20000598

080020d0 <inc_lock>:
 80020d0:	b5f0      	push	{r4, r5, r6, r7, lr}
 80020d2:	4c1d      	ldr	r4, [pc, #116]	@ (8002148 <inc_lock+0x78>)
 80020d4:	6807      	ldr	r7, [r0, #0]
 80020d6:	2300      	movs	r3, #0
 80020d8:	4622      	mov	r2, r4
 80020da:	6825      	ldr	r5, [r4, #0]
 80020dc:	42bd      	cmp	r5, r7
 80020de:	d107      	bne.n	80020f0 <inc_lock+0x20>
 80020e0:	6866      	ldr	r6, [r4, #4]
 80020e2:	6885      	ldr	r5, [r0, #8]
 80020e4:	42ae      	cmp	r6, r5
 80020e6:	d103      	bne.n	80020f0 <inc_lock+0x20>
 80020e8:	68a6      	ldr	r6, [r4, #8]
 80020ea:	6945      	ldr	r5, [r0, #20]
 80020ec:	42ae      	cmp	r6, r5
 80020ee:	d014      	beq.n	800211a <inc_lock+0x4a>
 80020f0:	3301      	adds	r3, #1
 80020f2:	2b05      	cmp	r3, #5
 80020f4:	f104 0410 	add.w	r4, r4, #16
 80020f8:	d1ef      	bne.n	80020da <inc_lock+0xa>
 80020fa:	2300      	movs	r3, #0
 80020fc:	011e      	lsls	r6, r3, #4
 80020fe:	eb02 1403 	add.w	r4, r2, r3, lsl #4
 8002102:	5995      	ldr	r5, [r2, r6]
 8002104:	b9bd      	cbnz	r5, 8002136 <inc_lock+0x66>
 8002106:	5197      	str	r7, [r2, r6]
 8002108:	6886      	ldr	r6, [r0, #8]
 800210a:	6940      	ldr	r0, [r0, #20]
 800210c:	6066      	str	r6, [r4, #4]
 800210e:	60a0      	str	r0, [r4, #8]
 8002110:	81a5      	strh	r5, [r4, #12]
 8002112:	b131      	cbz	r1, 8002122 <inc_lock+0x52>
 8002114:	f44f 7180 	mov.w	r1, #256	@ 0x100
 8002118:	e008      	b.n	800212c <inc_lock+0x5c>
 800211a:	eb02 1003 	add.w	r0, r2, r3, lsl #4
 800211e:	8980      	ldrh	r0, [r0, #12]
 8002120:	b971      	cbnz	r1, 8002140 <inc_lock+0x70>
 8002122:	eb02 1103 	add.w	r1, r2, r3, lsl #4
 8002126:	8989      	ldrh	r1, [r1, #12]
 8002128:	3101      	adds	r1, #1
 800212a:	b289      	uxth	r1, r1
 800212c:	eb02 1203 	add.w	r2, r2, r3, lsl #4
 8002130:	1c58      	adds	r0, r3, #1
 8002132:	8191      	strh	r1, [r2, #12]
 8002134:	bdf0      	pop	{r4, r5, r6, r7, pc}
 8002136:	3301      	adds	r3, #1
 8002138:	2b05      	cmp	r3, #5
 800213a:	d1df      	bne.n	80020fc <inc_lock+0x2c>
 800213c:	2000      	movs	r0, #0
 800213e:	e7f9      	b.n	8002134 <inc_lock+0x64>
 8002140:	2800      	cmp	r0, #0
 8002142:	d0e7      	beq.n	8002114 <inc_lock+0x44>
 8002144:	e7fa      	b.n	800213c <inc_lock+0x6c>
 8002146:	bf00      	nop
 8002148:	20000598 	.word	0x20000598

0800214c <dec_lock>:
 800214c:	3801      	subs	r0, #1
 800214e:	2804      	cmp	r0, #4
 8002150:	d815      	bhi.n	800217e <dec_lock+0x32>
 8002152:	4a0c      	ldr	r2, [pc, #48]	@ (8002184 <dec_lock+0x38>)
 8002154:	0101      	lsls	r1, r0, #4
 8002156:	eb02 1000 	add.w	r0, r2, r0, lsl #4
 800215a:	8983      	ldrh	r3, [r0, #12]
 800215c:	f5b3 7f80 	cmp.w	r3, #256	@ 0x100
 8002160:	d104      	bne.n	800216c <dec_lock+0x20>
 8002162:	2300      	movs	r3, #0
 8002164:	8183      	strh	r3, [r0, #12]
 8002166:	2300      	movs	r3, #0
 8002168:	5053      	str	r3, [r2, r1]
 800216a:	e006      	b.n	800217a <dec_lock+0x2e>
 800216c:	2b00      	cmp	r3, #0
 800216e:	d0fa      	beq.n	8002166 <dec_lock+0x1a>
 8002170:	3b01      	subs	r3, #1
 8002172:	b29b      	uxth	r3, r3
 8002174:	8183      	strh	r3, [r0, #12]
 8002176:	2b00      	cmp	r3, #0
 8002178:	d0f5      	beq.n	8002166 <dec_lock+0x1a>
 800217a:	2000      	movs	r0, #0
 800217c:	4770      	bx	lr
 800217e:	2002      	movs	r0, #2
 8002180:	4770      	bx	lr
 8002182:	bf00      	nop
 8002184:	20000598 	.word	0x20000598

08002188 <clear_lock>:
 8002188:	b510      	push	{r4, lr}
 800218a:	2300      	movs	r3, #0
 800218c:	4a05      	ldr	r2, [pc, #20]	@ (80021a4 <clear_lock+0x1c>)
 800218e:	4619      	mov	r1, r3
 8002190:	f852 4023 	ldr.w	r4, [r2, r3, lsl #2]
 8002194:	4284      	cmp	r4, r0
 8002196:	bf08      	it	eq
 8002198:	f842 1023 	streq.w	r1, [r2, r3, lsl #2]
 800219c:	3304      	adds	r3, #4
 800219e:	2b14      	cmp	r3, #20
 80021a0:	d1f6      	bne.n	8002190 <clear_lock+0x8>
 80021a2:	bd10      	pop	{r4, pc}
 80021a4:	20000598 	.word	0x20000598

080021a8 <clust2sect>:
 80021a8:	6983      	ldr	r3, [r0, #24]
 80021aa:	3902      	subs	r1, #2
 80021ac:	3b02      	subs	r3, #2
 80021ae:	428b      	cmp	r3, r1
 80021b0:	bf83      	ittte	hi
 80021b2:	8943      	ldrhhi	r3, [r0, #10]
 80021b4:	6ac0      	ldrhi	r0, [r0, #44]	@ 0x2c
 80021b6:	fb01 0003 	mlahi	r0, r1, r3, r0
 80021ba:	2000      	movls	r0, #0
 80021bc:	4770      	bx	lr

080021be <clmt_clust>:
 80021be:	6ac3      	ldr	r3, [r0, #44]	@ 0x2c
 80021c0:	6802      	ldr	r2, [r0, #0]
 80021c2:	3304      	adds	r3, #4
 80021c4:	8952      	ldrh	r2, [r2, #10]
 80021c6:	0a49      	lsrs	r1, r1, #9
 80021c8:	fbb1 f1f2 	udiv	r1, r1, r2
 80021cc:	6818      	ldr	r0, [r3, #0]
 80021ce:	b130      	cbz	r0, 80021de <clmt_clust+0x20>
 80021d0:	4281      	cmp	r1, r0
 80021d2:	d302      	bcc.n	80021da <clmt_clust+0x1c>
 80021d4:	1a09      	subs	r1, r1, r0
 80021d6:	3308      	adds	r3, #8
 80021d8:	e7f8      	b.n	80021cc <clmt_clust+0xe>
 80021da:	6858      	ldr	r0, [r3, #4]
 80021dc:	4408      	add	r0, r1
 80021de:	4770      	bx	lr

080021e0 <sum_sfn>:
 80021e0:	4603      	mov	r3, r0
 80021e2:	f100 010b 	add.w	r1, r0, #11
 80021e6:	2000      	movs	r0, #0
 80021e8:	01c2      	lsls	r2, r0, #7
 80021ea:	ea42 0250 	orr.w	r2, r2, r0, lsr #1
 80021ee:	f813 0b01 	ldrb.w	r0, [r3], #1
 80021f2:	fa50 f282 	uxtab	r2, r0, r2
 80021f6:	428b      	cmp	r3, r1
 80021f8:	b2d0      	uxtb	r0, r2
 80021fa:	d1f5      	bne.n	80021e8 <sum_sfn+0x8>
 80021fc:	4770      	bx	lr

080021fe <get_ldnumber>:
 80021fe:	6803      	ldr	r3, [r0, #0]
 8002200:	b510      	push	{r4, lr}
 8002202:	b153      	cbz	r3, 800221a <get_ldnumber+0x1c>
 8002204:	4619      	mov	r1, r3
 8002206:	460a      	mov	r2, r1
 8002208:	f811 4b01 	ldrb.w	r4, [r1], #1
 800220c:	2c1f      	cmp	r4, #31
 800220e:	d90c      	bls.n	800222a <get_ldnumber+0x2c>
 8002210:	2c3a      	cmp	r4, #58	@ 0x3a
 8002212:	d1f8      	bne.n	8002206 <get_ldnumber+0x8>
 8002214:	7819      	ldrb	r1, [r3, #0]
 8002216:	2930      	cmp	r1, #48	@ 0x30
 8002218:	d002      	beq.n	8002220 <get_ldnumber+0x22>
 800221a:	f04f 30ff 	mov.w	r0, #4294967295
 800221e:	e005      	b.n	800222c <get_ldnumber+0x2e>
 8002220:	3301      	adds	r3, #1
 8002222:	429a      	cmp	r2, r3
 8002224:	d1f9      	bne.n	800221a <get_ldnumber+0x1c>
 8002226:	3201      	adds	r2, #1
 8002228:	6002      	str	r2, [r0, #0]
 800222a:	2000      	movs	r0, #0
 800222c:	bd10      	pop	{r4, pc}

0800222e <validate>:
 800222e:	b538      	push	{r3, r4, r5, lr}
 8002230:	460d      	mov	r5, r1
 8002232:	4604      	mov	r4, r0
 8002234:	b918      	cbnz	r0, 800223e <validate+0x10>
 8002236:	2009      	movs	r0, #9
 8002238:	2300      	movs	r3, #0
 800223a:	602b      	str	r3, [r5, #0]
 800223c:	bd38      	pop	{r3, r4, r5, pc}
 800223e:	6803      	ldr	r3, [r0, #0]
 8002240:	2b00      	cmp	r3, #0
 8002242:	d0f8      	beq.n	8002236 <validate+0x8>
 8002244:	781a      	ldrb	r2, [r3, #0]
 8002246:	2a00      	cmp	r2, #0
 8002248:	d0f5      	beq.n	8002236 <validate+0x8>
 800224a:	8881      	ldrh	r1, [r0, #4]
 800224c:	88da      	ldrh	r2, [r3, #6]
 800224e:	4291      	cmp	r1, r2
 8002250:	d1f1      	bne.n	8002236 <validate+0x8>
 8002252:	7858      	ldrb	r0, [r3, #1]
 8002254:	f7ff feb6 	bl	8001fc4 <disk_status>
 8002258:	f010 0001 	ands.w	r0, r0, #1
 800225c:	d1eb      	bne.n	8002236 <validate+0x8>
 800225e:	6823      	ldr	r3, [r4, #0]
 8002260:	e7eb      	b.n	800223a <validate+0xc>

08002262 <sync_window>:
 8002262:	b5f8      	push	{r3, r4, r5, r6, r7, lr}
 8002264:	78c3      	ldrb	r3, [r0, #3]
 8002266:	4604      	mov	r4, r0
 8002268:	b90b      	cbnz	r3, 800226e <sync_window+0xc>
 800226a:	2000      	movs	r0, #0
 800226c:	bdf8      	pop	{r3, r4, r5, r6, r7, pc}
 800226e:	6b05      	ldr	r5, [r0, #48]	@ 0x30
 8002270:	f100 0734 	add.w	r7, r0, #52	@ 0x34
 8002274:	2301      	movs	r3, #1
 8002276:	7840      	ldrb	r0, [r0, #1]
 8002278:	462a      	mov	r2, r5
 800227a:	4639      	mov	r1, r7
 800227c:	f7ff fece 	bl	800201c <disk_write>
 8002280:	b990      	cbnz	r0, 80022a8 <sync_window+0x46>
 8002282:	6a63      	ldr	r3, [r4, #36]	@ 0x24
 8002284:	69e2      	ldr	r2, [r4, #28]
 8002286:	70e0      	strb	r0, [r4, #3]
 8002288:	1aeb      	subs	r3, r5, r3
 800228a:	4293      	cmp	r3, r2
 800228c:	d2ed      	bcs.n	800226a <sync_window+0x8>
 800228e:	78a6      	ldrb	r6, [r4, #2]
 8002290:	2e01      	cmp	r6, #1
 8002292:	d9ea      	bls.n	800226a <sync_window+0x8>
 8002294:	69e3      	ldr	r3, [r4, #28]
 8002296:	7860      	ldrb	r0, [r4, #1]
 8002298:	441d      	add	r5, r3
 800229a:	462a      	mov	r2, r5
 800229c:	2301      	movs	r3, #1
 800229e:	4639      	mov	r1, r7
 80022a0:	f7ff febc 	bl	800201c <disk_write>
 80022a4:	3e01      	subs	r6, #1
 80022a6:	e7f3      	b.n	8002290 <sync_window+0x2e>
 80022a8:	2001      	movs	r0, #1
 80022aa:	e7df      	b.n	800226c <sync_window+0xa>

080022ac <mem_cpy.part.0>:
 80022ac:	3801      	subs	r0, #1
 80022ae:	440a      	add	r2, r1
 80022b0:	f811 3b01 	ldrb.w	r3, [r1], #1
 80022b4:	f800 3f01 	strb.w	r3, [r0, #1]!
 80022b8:	4291      	cmp	r1, r2
 80022ba:	d1f9      	bne.n	80022b0 <mem_cpy.part.0+0x4>
 80022bc:	4770      	bx	lr

080022be <st_clust>:
 80022be:	f3c2 2307 	ubfx	r3, r2, #8, #8
 80022c2:	768a      	strb	r2, [r1, #26]
 80022c4:	76cb      	strb	r3, [r1, #27]
 80022c6:	7803      	ldrb	r3, [r0, #0]
 80022c8:	2b03      	cmp	r3, #3
 80022ca:	bf01      	itttt	eq
 80022cc:	0c12      	lsreq	r2, r2, #16
 80022ce:	750a      	strbeq	r2, [r1, #20]
 80022d0:	0a12      	lsreq	r2, r2, #8
 80022d2:	754a      	strbeq	r2, [r1, #21]
 80022d4:	4770      	bx	lr

080022d6 <move_window>:
 80022d6:	b538      	push	{r3, r4, r5, lr}
 80022d8:	6b03      	ldr	r3, [r0, #48]	@ 0x30
 80022da:	428b      	cmp	r3, r1
 80022dc:	4605      	mov	r5, r0
 80022de:	460c      	mov	r4, r1
 80022e0:	d010      	beq.n	8002304 <move_window+0x2e>
 80022e2:	f7ff ffbe 	bl	8002262 <sync_window>
 80022e6:	b960      	cbnz	r0, 8002302 <move_window+0x2c>
 80022e8:	4622      	mov	r2, r4
 80022ea:	7868      	ldrb	r0, [r5, #1]
 80022ec:	2301      	movs	r3, #1
 80022ee:	f105 0134 	add.w	r1, r5, #52	@ 0x34
 80022f2:	f7ff fe85 	bl	8002000 <disk_read>
 80022f6:	2800      	cmp	r0, #0
 80022f8:	bf1c      	itt	ne
 80022fa:	f04f 34ff 	movne.w	r4, #4294967295
 80022fe:	2001      	movne	r0, #1
 8002300:	632c      	str	r4, [r5, #48]	@ 0x30
 8002302:	bd38      	pop	{r3, r4, r5, pc}
 8002304:	2000      	movs	r0, #0
 8002306:	e7fc      	b.n	8002302 <move_window+0x2c>

08002308 <check_fs>:
 8002308:	2300      	movs	r3, #0
 800230a:	b510      	push	{r4, lr}
 800230c:	70c3      	strb	r3, [r0, #3]
 800230e:	f04f 33ff 	mov.w	r3, #4294967295
 8002312:	6303      	str	r3, [r0, #48]	@ 0x30
 8002314:	4604      	mov	r4, r0
 8002316:	f7ff ffde 	bl	80022d6 <move_window>
 800231a:	4603      	mov	r3, r0
 800231c:	bb18      	cbnz	r0, 8002366 <check_fs+0x5e>
 800231e:	f8b4 1232 	ldrh.w	r1, [r4, #562]	@ 0x232
 8002322:	f64a 2255 	movw	r2, #43605	@ 0xaa55
 8002326:	4291      	cmp	r1, r2
 8002328:	d11f      	bne.n	800236a <check_fs+0x62>
 800232a:	f894 2034 	ldrb.w	r2, [r4, #52]	@ 0x34
 800232e:	2ae9      	cmp	r2, #233	@ 0xe9
 8002330:	d005      	beq.n	800233e <check_fs+0x36>
 8002332:	6b62      	ldr	r2, [r4, #52]	@ 0x34
 8002334:	490f      	ldr	r1, [pc, #60]	@ (8002374 <check_fs+0x6c>)
 8002336:	f002 12ff 	and.w	r2, r2, #16711935	@ 0xff00ff
 800233a:	428a      	cmp	r2, r1
 800233c:	d117      	bne.n	800236e <check_fs+0x66>
 800233e:	f104 006a 	add.w	r0, r4, #106	@ 0x6a
 8002342:	f7ff fe87 	bl	8002054 <ld_dword>
 8002346:	4a0c      	ldr	r2, [pc, #48]	@ (8002378 <check_fs+0x70>)
 8002348:	f020 407f 	bic.w	r0, r0, #4278190080	@ 0xff000000
 800234c:	4290      	cmp	r0, r2
 800234e:	d008      	beq.n	8002362 <check_fs+0x5a>
 8002350:	f104 0086 	add.w	r0, r4, #134	@ 0x86
 8002354:	f7ff fe7e 	bl	8002054 <ld_dword>
 8002358:	4b08      	ldr	r3, [pc, #32]	@ (800237c <check_fs+0x74>)
 800235a:	1ac3      	subs	r3, r0, r3
 800235c:	bf18      	it	ne
 800235e:	2301      	movne	r3, #1
 8002360:	005b      	lsls	r3, r3, #1
 8002362:	4618      	mov	r0, r3
 8002364:	bd10      	pop	{r4, pc}
 8002366:	2304      	movs	r3, #4
 8002368:	e7fb      	b.n	8002362 <check_fs+0x5a>
 800236a:	2303      	movs	r3, #3
 800236c:	e7f9      	b.n	8002362 <check_fs+0x5a>
 800236e:	2302      	movs	r3, #2
 8002370:	e7f7      	b.n	8002362 <check_fs+0x5a>
 8002372:	bf00      	nop
 8002374:	009000eb 	.word	0x009000eb
 8002378:	00544146 	.word	0x00544146
 800237c:	33544146 	.word	0x33544146

08002380 <find_volume>:
 8002380:	b5f0      	push	{r4, r5, r6, r7, lr}
 8002382:	2300      	movs	r3, #0
 8002384:	b085      	sub	sp, #20
 8002386:	600b      	str	r3, [r1, #0]
 8002388:	460f      	mov	r7, r1
 800238a:	4616      	mov	r6, r2
 800238c:	f7ff ff37 	bl	80021fe <get_ldnumber>
 8002390:	1e05      	subs	r5, r0, #0
 8002392:	f2c0 8112 	blt.w	80025ba <find_volume+0x23a>
 8002396:	4b8c      	ldr	r3, [pc, #560]	@ (80025c8 <find_volume+0x248>)
 8002398:	f853 4025 	ldr.w	r4, [r3, r5, lsl #2]
 800239c:	2c00      	cmp	r4, #0
 800239e:	f000 810e 	beq.w	80025be <find_volume+0x23e>
 80023a2:	603c      	str	r4, [r7, #0]
 80023a4:	7823      	ldrb	r3, [r4, #0]
 80023a6:	f006 06fe 	and.w	r6, r6, #254	@ 0xfe
 80023aa:	b16b      	cbz	r3, 80023c8 <find_volume+0x48>
 80023ac:	7860      	ldrb	r0, [r4, #1]
 80023ae:	f7ff fe09 	bl	8001fc4 <disk_status>
 80023b2:	07c7      	lsls	r7, r0, #31
 80023b4:	d408      	bmi.n	80023c8 <find_volume+0x48>
 80023b6:	2e00      	cmp	r6, #0
 80023b8:	f000 80da 	beq.w	8002570 <find_volume+0x1f0>
 80023bc:	0740      	lsls	r0, r0, #29
 80023be:	f140 80d7 	bpl.w	8002570 <find_volume+0x1f0>
 80023c2:	200a      	movs	r0, #10
 80023c4:	b005      	add	sp, #20
 80023c6:	bdf0      	pop	{r4, r5, r6, r7, pc}
 80023c8:	2300      	movs	r3, #0
 80023ca:	b2e8      	uxtb	r0, r5
 80023cc:	7023      	strb	r3, [r4, #0]
 80023ce:	7060      	strb	r0, [r4, #1]
 80023d0:	f7ff fe02 	bl	8001fd8 <disk_initialize>
 80023d4:	07c1      	lsls	r1, r0, #31
 80023d6:	f100 80f4 	bmi.w	80025c2 <find_volume+0x242>
 80023da:	b10e      	cbz	r6, 80023e0 <find_volume+0x60>
 80023dc:	0742      	lsls	r2, r0, #29
 80023de:	d4f0      	bmi.n	80023c2 <find_volume+0x42>
 80023e0:	2100      	movs	r1, #0
 80023e2:	4620      	mov	r0, r4
 80023e4:	f7ff ff90 	bl	8002308 <check_fs>
 80023e8:	2802      	cmp	r0, #2
 80023ea:	f040 80cb 	bne.w	8002584 <find_volume+0x204>
 80023ee:	466f      	mov	r7, sp
 80023f0:	f504 73fd 	add.w	r3, r4, #506	@ 0x1fa
 80023f4:	f204 213a 	addw	r1, r4, #570	@ 0x23a
 80023f8:	463a      	mov	r2, r7
 80023fa:	f813 0c04 	ldrb.w	r0, [r3, #-4]
 80023fe:	b110      	cbz	r0, 8002406 <find_volume+0x86>
 8002400:	4618      	mov	r0, r3
 8002402:	f7ff fe27 	bl	8002054 <ld_dword>
 8002406:	3310      	adds	r3, #16
 8002408:	428b      	cmp	r3, r1
 800240a:	f842 0b04 	str.w	r0, [r2], #4
 800240e:	d1f4      	bne.n	80023fa <find_volume+0x7a>
 8002410:	2500      	movs	r5, #0
 8002412:	f857 6b04 	ldr.w	r6, [r7], #4
 8002416:	2e00      	cmp	r6, #0
 8002418:	f000 80ac 	beq.w	8002574 <find_volume+0x1f4>
 800241c:	4631      	mov	r1, r6
 800241e:	4620      	mov	r0, r4
 8002420:	f7ff ff72 	bl	8002308 <check_fs>
 8002424:	2801      	cmp	r0, #1
 8002426:	f200 80a6 	bhi.w	8002576 <find_volume+0x1f6>
 800242a:	f8b4 303f 	ldrh.w	r3, [r4, #63]	@ 0x3f
 800242e:	f5b3 7f00 	cmp.w	r3, #512	@ 0x200
 8002432:	f040 80ad 	bne.w	8002590 <find_volume+0x210>
 8002436:	f8b4 104a 	ldrh.w	r1, [r4, #74]	@ 0x4a
 800243a:	b921      	cbnz	r1, 8002446 <find_volume+0xc6>
 800243c:	f104 0058 	add.w	r0, r4, #88	@ 0x58
 8002440:	f7ff fe08 	bl	8002054 <ld_dword>
 8002444:	4601      	mov	r1, r0
 8002446:	f894 2044 	ldrb.w	r2, [r4, #68]	@ 0x44
 800244a:	61e1      	str	r1, [r4, #28]
 800244c:	1e53      	subs	r3, r2, #1
 800244e:	2b01      	cmp	r3, #1
 8002450:	70a2      	strb	r2, [r4, #2]
 8002452:	f200 809d 	bhi.w	8002590 <find_volume+0x210>
 8002456:	f894 5041 	ldrb.w	r5, [r4, #65]	@ 0x41
 800245a:	8165      	strh	r5, [r4, #10]
 800245c:	2d00      	cmp	r5, #0
 800245e:	f000 8097 	beq.w	8002590 <find_volume+0x210>
 8002462:	1e6b      	subs	r3, r5, #1
 8002464:	422b      	tst	r3, r5
 8002466:	f040 8093 	bne.w	8002590 <find_volume+0x210>
 800246a:	f8b4 7045 	ldrh.w	r7, [r4, #69]	@ 0x45
 800246e:	8127      	strh	r7, [r4, #8]
 8002470:	073b      	lsls	r3, r7, #28
 8002472:	f040 808d 	bne.w	8002590 <find_volume+0x210>
 8002476:	f8b4 0047 	ldrh.w	r0, [r4, #71]	@ 0x47
 800247a:	b918      	cbnz	r0, 8002484 <find_volume+0x104>
 800247c:	f104 0054 	add.w	r0, r4, #84	@ 0x54
 8002480:	f7ff fde8 	bl	8002054 <ld_dword>
 8002484:	f8b4 3042 	ldrh.w	r3, [r4, #66]	@ 0x42
 8002488:	2b00      	cmp	r3, #0
 800248a:	f000 8081 	beq.w	8002590 <find_volume+0x210>
 800248e:	fb01 fe02 	mul.w	lr, r1, r2
 8002492:	eb03 1c17 	add.w	ip, r3, r7, lsr #4
 8002496:	44f4      	add	ip, lr
 8002498:	4560      	cmp	r0, ip
 800249a:	d379      	bcc.n	8002590 <find_volume+0x210>
 800249c:	eba0 000c 	sub.w	r0, r0, ip
 80024a0:	42a8      	cmp	r0, r5
 80024a2:	fbb0 f2f5 	udiv	r2, r0, r5
 80024a6:	d373      	bcc.n	8002590 <find_volume+0x210>
 80024a8:	f64f 70f5 	movw	r0, #65525	@ 0xfff5
 80024ac:	4282      	cmp	r2, r0
 80024ae:	d873      	bhi.n	8002598 <find_volume+0x218>
 80024b0:	f640 75f5 	movw	r5, #4085	@ 0xff5
 80024b4:	42aa      	cmp	r2, r5
 80024b6:	bf8c      	ite	hi
 80024b8:	2502      	movhi	r5, #2
 80024ba:	2501      	movls	r5, #1
 80024bc:	3202      	adds	r2, #2
 80024be:	4433      	add	r3, r6
 80024c0:	eb06 000c 	add.w	r0, r6, ip
 80024c4:	2d03      	cmp	r5, #3
 80024c6:	61a2      	str	r2, [r4, #24]
 80024c8:	6226      	str	r6, [r4, #32]
 80024ca:	6263      	str	r3, [r4, #36]	@ 0x24
 80024cc:	62e0      	str	r0, [r4, #44]	@ 0x2c
 80024ce:	d165      	bne.n	800259c <find_volume+0x21c>
 80024d0:	f8b4 305e 	ldrh.w	r3, [r4, #94]	@ 0x5e
 80024d4:	433b      	orrs	r3, r7
 80024d6:	d15b      	bne.n	8002590 <find_volume+0x210>
 80024d8:	f104 0060 	add.w	r0, r4, #96	@ 0x60
 80024dc:	f7ff fdba 	bl	8002054 <ld_dword>
 80024e0:	0092      	lsls	r2, r2, #2
 80024e2:	f202 12ff 	addw	r2, r2, #511	@ 0x1ff
 80024e6:	ebb1 2f52 	cmp.w	r1, r2, lsr #9
 80024ea:	62a0      	str	r0, [r4, #40]	@ 0x28
 80024ec:	d350      	bcc.n	8002590 <find_volume+0x210>
 80024ee:	f04f 33ff 	mov.w	r3, #4294967295
 80024f2:	e9c4 3304 	strd	r3, r3, [r4, #16]
 80024f6:	2d03      	cmp	r5, #3
 80024f8:	f04f 0380 	mov.w	r3, #128	@ 0x80
 80024fc:	7123      	strb	r3, [r4, #4]
 80024fe:	d12b      	bne.n	8002558 <find_volume+0x1d8>
 8002500:	f8b4 3064 	ldrh.w	r3, [r4, #100]	@ 0x64
 8002504:	2b01      	cmp	r3, #1
 8002506:	d127      	bne.n	8002558 <find_volume+0x1d8>
 8002508:	1c71      	adds	r1, r6, #1
 800250a:	4620      	mov	r0, r4
 800250c:	f7ff fee3 	bl	80022d6 <move_window>
 8002510:	bb10      	cbnz	r0, 8002558 <find_volume+0x1d8>
 8002512:	f8b4 2232 	ldrh.w	r2, [r4, #562]	@ 0x232
 8002516:	7120      	strb	r0, [r4, #4]
 8002518:	f64a 2355 	movw	r3, #43605	@ 0xaa55
 800251c:	429a      	cmp	r2, r3
 800251e:	d11b      	bne.n	8002558 <find_volume+0x1d8>
 8002520:	f104 0034 	add.w	r0, r4, #52	@ 0x34
 8002524:	f7ff fd96 	bl	8002054 <ld_dword>
 8002528:	4b28      	ldr	r3, [pc, #160]	@ (80025cc <find_volume+0x24c>)
 800252a:	4298      	cmp	r0, r3
 800252c:	d114      	bne.n	8002558 <find_volume+0x1d8>
 800252e:	f504 7006 	add.w	r0, r4, #536	@ 0x218
 8002532:	f7ff fd8f 	bl	8002054 <ld_dword>
 8002536:	f103 53ff 	add.w	r3, r3, #534773760	@ 0x1fe00000
 800253a:	f503 5300 	add.w	r3, r3, #8192	@ 0x2000
 800253e:	3320      	adds	r3, #32
 8002540:	4298      	cmp	r0, r3
 8002542:	d109      	bne.n	8002558 <find_volume+0x1d8>
 8002544:	f504 7007 	add.w	r0, r4, #540	@ 0x21c
 8002548:	f7ff fd84 	bl	8002054 <ld_dword>
 800254c:	6160      	str	r0, [r4, #20]
 800254e:	f504 7008 	add.w	r0, r4, #544	@ 0x220
 8002552:	f7ff fd7f 	bl	8002054 <ld_dword>
 8002556:	6120      	str	r0, [r4, #16]
 8002558:	4a1d      	ldr	r2, [pc, #116]	@ (80025d0 <find_volume+0x250>)
 800255a:	7025      	strb	r5, [r4, #0]
 800255c:	8813      	ldrh	r3, [r2, #0]
 800255e:	3301      	adds	r3, #1
 8002560:	b29b      	uxth	r3, r3
 8002562:	8013      	strh	r3, [r2, #0]
 8002564:	80e3      	strh	r3, [r4, #6]
 8002566:	4b1b      	ldr	r3, [pc, #108]	@ (80025d4 <find_volume+0x254>)
 8002568:	60e3      	str	r3, [r4, #12]
 800256a:	4620      	mov	r0, r4
 800256c:	f7ff fe0c 	bl	8002188 <clear_lock>
 8002570:	2000      	movs	r0, #0
 8002572:	e727      	b.n	80023c4 <find_volume+0x44>
 8002574:	2003      	movs	r0, #3
 8002576:	3501      	adds	r5, #1
 8002578:	2d04      	cmp	r5, #4
 800257a:	f47f af4a 	bne.w	8002412 <find_volume+0x92>
 800257e:	2804      	cmp	r0, #4
 8002580:	d106      	bne.n	8002590 <find_volume+0x210>
 8002582:	e001      	b.n	8002588 <find_volume+0x208>
 8002584:	2804      	cmp	r0, #4
 8002586:	d101      	bne.n	800258c <find_volume+0x20c>
 8002588:	2001      	movs	r0, #1
 800258a:	e71b      	b.n	80023c4 <find_volume+0x44>
 800258c:	2801      	cmp	r0, #1
 800258e:	d901      	bls.n	8002594 <find_volume+0x214>
 8002590:	200d      	movs	r0, #13
 8002592:	e717      	b.n	80023c4 <find_volume+0x44>
 8002594:	2600      	movs	r6, #0
 8002596:	e748      	b.n	800242a <find_volume+0xaa>
 8002598:	2503      	movs	r5, #3
 800259a:	e78f      	b.n	80024bc <find_volume+0x13c>
 800259c:	2f00      	cmp	r7, #0
 800259e:	d0f7      	beq.n	8002590 <find_volume+0x210>
 80025a0:	2d02      	cmp	r5, #2
 80025a2:	eb03 000e 	add.w	r0, r3, lr
 80025a6:	ea4f 0342 	mov.w	r3, r2, lsl #1
 80025aa:	bf1b      	ittet	ne
 80025ac:	189b      	addne	r3, r3, r2
 80025ae:	f002 0201 	andne.w	r2, r2, #1
 80025b2:	461a      	moveq	r2, r3
 80025b4:	eb02 0253 	addne.w	r2, r2, r3, lsr #1
 80025b8:	e793      	b.n	80024e2 <find_volume+0x162>
 80025ba:	200b      	movs	r0, #11
 80025bc:	e702      	b.n	80023c4 <find_volume+0x44>
 80025be:	200c      	movs	r0, #12
 80025c0:	e700      	b.n	80023c4 <find_volume+0x44>
 80025c2:	2003      	movs	r0, #3
 80025c4:	e6fe      	b.n	80023c4 <find_volume+0x44>
 80025c6:	bf00      	nop
 80025c8:	200005ec 	.word	0x200005ec
 80025cc:	41615252 	.word	0x41615252
 80025d0:	200005e8 	.word	0x200005e8
 80025d4:	20000396 	.word	0x20000396

080025d8 <put_fat>:
 80025d8:	2901      	cmp	r1, #1
 80025da:	e92d 43f8 	stmdb	sp!, {r3, r4, r5, r6, r7, r8, r9, lr}
 80025de:	4605      	mov	r5, r0
 80025e0:	460e      	mov	r6, r1
 80025e2:	4614      	mov	r4, r2
 80025e4:	d96e      	bls.n	80026c4 <put_fat+0xec>
 80025e6:	6983      	ldr	r3, [r0, #24]
 80025e8:	428b      	cmp	r3, r1
 80025ea:	d96b      	bls.n	80026c4 <put_fat+0xec>
 80025ec:	7803      	ldrb	r3, [r0, #0]
 80025ee:	2b02      	cmp	r3, #2
 80025f0:	d03d      	beq.n	800266e <put_fat+0x96>
 80025f2:	2b03      	cmp	r3, #3
 80025f4:	d04d      	beq.n	8002692 <put_fat+0xba>
 80025f6:	2b01      	cmp	r3, #1
 80025f8:	d164      	bne.n	80026c4 <put_fat+0xec>
 80025fa:	eb01 0851 	add.w	r8, r1, r1, lsr #1
 80025fe:	6a41      	ldr	r1, [r0, #36]	@ 0x24
 8002600:	eb01 2158 	add.w	r1, r1, r8, lsr #9
 8002604:	f7ff fe67 	bl	80022d6 <move_window>
 8002608:	bb38      	cbnz	r0, 800265a <put_fat+0x82>
 800260a:	f105 0734 	add.w	r7, r5, #52	@ 0x34
 800260e:	f108 0901 	add.w	r9, r8, #1
 8002612:	f3c8 0808 	ubfx	r8, r8, #0, #9
 8002616:	f016 0601 	ands.w	r6, r6, #1
 800261a:	bf1f      	itttt	ne
 800261c:	f817 2008 	ldrbne.w	r2, [r7, r8]
 8002620:	0123      	lslne	r3, r4, #4
 8002622:	f003 03f0 	andne.w	r3, r3, #240	@ 0xf0
 8002626:	f002 020f 	andne.w	r2, r2, #15
 800262a:	bf14      	ite	ne
 800262c:	4313      	orrne	r3, r2
 800262e:	b2e3      	uxtbeq	r3, r4
 8002630:	f807 3008 	strb.w	r3, [r7, r8]
 8002634:	6a69      	ldr	r1, [r5, #36]	@ 0x24
 8002636:	2301      	movs	r3, #1
 8002638:	70eb      	strb	r3, [r5, #3]
 800263a:	eb01 2159 	add.w	r1, r1, r9, lsr #9
 800263e:	4628      	mov	r0, r5
 8002640:	f7ff fe49 	bl	80022d6 <move_window>
 8002644:	b948      	cbnz	r0, 800265a <put_fat+0x82>
 8002646:	f3c9 0908 	ubfx	r9, r9, #0, #9
 800264a:	b146      	cbz	r6, 800265e <put_fat+0x86>
 800264c:	f3c4 1407 	ubfx	r4, r4, #4, #8
 8002650:	f807 4009 	strb.w	r4, [r7, r9]
 8002654:	2301      	movs	r3, #1
 8002656:	70eb      	strb	r3, [r5, #3]
 8002658:	2000      	movs	r0, #0
 800265a:	e8bd 83f8 	ldmia.w	sp!, {r3, r4, r5, r6, r7, r8, r9, pc}
 800265e:	f817 3009 	ldrb.w	r3, [r7, r9]
 8002662:	f3c4 2403 	ubfx	r4, r4, #8, #4
 8002666:	f023 030f 	bic.w	r3, r3, #15
 800266a:	431c      	orrs	r4, r3
 800266c:	e7f0      	b.n	8002650 <put_fat+0x78>
 800266e:	6a41      	ldr	r1, [r0, #36]	@ 0x24
 8002670:	eb01 2116 	add.w	r1, r1, r6, lsr #8
 8002674:	f7ff fe2f 	bl	80022d6 <move_window>
 8002678:	2800      	cmp	r0, #0
 800267a:	d1ee      	bne.n	800265a <put_fat+0x82>
 800267c:	0076      	lsls	r6, r6, #1
 800267e:	f105 0334 	add.w	r3, r5, #52	@ 0x34
 8002682:	f406 76ff 	and.w	r6, r6, #510	@ 0x1fe
 8002686:	199a      	adds	r2, r3, r6
 8002688:	559c      	strb	r4, [r3, r6]
 800268a:	f3c4 2407 	ubfx	r4, r4, #8, #8
 800268e:	7054      	strb	r4, [r2, #1]
 8002690:	e7e0      	b.n	8002654 <put_fat+0x7c>
 8002692:	6a41      	ldr	r1, [r0, #36]	@ 0x24
 8002694:	eb01 11d6 	add.w	r1, r1, r6, lsr #7
 8002698:	f7ff fe1d 	bl	80022d6 <move_window>
 800269c:	2800      	cmp	r0, #0
 800269e:	d1dc      	bne.n	800265a <put_fat+0x82>
 80026a0:	00b6      	lsls	r6, r6, #2
 80026a2:	f105 0334 	add.w	r3, r5, #52	@ 0x34
 80026a6:	f406 76fe 	and.w	r6, r6, #508	@ 0x1fc
 80026aa:	4433      	add	r3, r6
 80026ac:	4618      	mov	r0, r3
 80026ae:	f7ff fcd1 	bl	8002054 <ld_dword>
 80026b2:	f024 4470 	bic.w	r4, r4, #4026531840	@ 0xf0000000
 80026b6:	f000 4170 	and.w	r1, r0, #4026531840	@ 0xf0000000
 80026ba:	4321      	orrs	r1, r4
 80026bc:	4618      	mov	r0, r3
 80026be:	f7ff fccb 	bl	8002058 <st_dword>
 80026c2:	e7c7      	b.n	8002654 <put_fat+0x7c>
 80026c4:	2002      	movs	r0, #2
 80026c6:	e7c8      	b.n	800265a <put_fat+0x82>

080026c8 <sync_fs>:
 80026c8:	b5f8      	push	{r3, r4, r5, r6, r7, lr}
 80026ca:	4604      	mov	r4, r0
 80026cc:	f7ff fdc9 	bl	8002262 <sync_window>
 80026d0:	4605      	mov	r5, r0
 80026d2:	2800      	cmp	r0, #0
 80026d4:	d142      	bne.n	800275c <sync_fs+0x94>
 80026d6:	7823      	ldrb	r3, [r4, #0]
 80026d8:	2b03      	cmp	r3, #3
 80026da:	d137      	bne.n	800274c <sync_fs+0x84>
 80026dc:	7927      	ldrb	r7, [r4, #4]
 80026de:	2f01      	cmp	r7, #1
 80026e0:	d134      	bne.n	800274c <sync_fs+0x84>
 80026e2:	f104 0634 	add.w	r6, r4, #52	@ 0x34
 80026e6:	4601      	mov	r1, r0
 80026e8:	f44f 7200 	mov.w	r2, #512	@ 0x200
 80026ec:	4630      	mov	r0, r6
 80026ee:	2355      	movs	r3, #85	@ 0x55
 80026f0:	f7ff fcba 	bl	8002068 <mem_set>
 80026f4:	f884 3232 	strb.w	r3, [r4, #562]	@ 0x232
 80026f8:	23aa      	movs	r3, #170	@ 0xaa
 80026fa:	f884 3233 	strb.w	r3, [r4, #563]	@ 0x233
 80026fe:	2352      	movs	r3, #82	@ 0x52
 8002700:	2241      	movs	r2, #65	@ 0x41
 8002702:	2172      	movs	r1, #114	@ 0x72
 8002704:	f884 3034 	strb.w	r3, [r4, #52]	@ 0x34
 8002708:	f884 3035 	strb.w	r3, [r4, #53]	@ 0x35
 800270c:	2361      	movs	r3, #97	@ 0x61
 800270e:	f884 3036 	strb.w	r3, [r4, #54]	@ 0x36
 8002712:	f884 321b 	strb.w	r3, [r4, #539]	@ 0x21b
 8002716:	f884 2037 	strb.w	r2, [r4, #55]	@ 0x37
 800271a:	f884 1218 	strb.w	r1, [r4, #536]	@ 0x218
 800271e:	f884 1219 	strb.w	r1, [r4, #537]	@ 0x219
 8002722:	f884 221a 	strb.w	r2, [r4, #538]	@ 0x21a
 8002726:	6961      	ldr	r1, [r4, #20]
 8002728:	f504 7007 	add.w	r0, r4, #540	@ 0x21c
 800272c:	f7ff fc94 	bl	8002058 <st_dword>
 8002730:	6921      	ldr	r1, [r4, #16]
 8002732:	f504 7008 	add.w	r0, r4, #544	@ 0x220
 8002736:	f7ff fc8f 	bl	8002058 <st_dword>
 800273a:	6a22      	ldr	r2, [r4, #32]
 800273c:	7860      	ldrb	r0, [r4, #1]
 800273e:	3201      	adds	r2, #1
 8002740:	6322      	str	r2, [r4, #48]	@ 0x30
 8002742:	463b      	mov	r3, r7
 8002744:	4631      	mov	r1, r6
 8002746:	f7ff fc69 	bl	800201c <disk_write>
 800274a:	7125      	strb	r5, [r4, #4]
 800274c:	2200      	movs	r2, #0
 800274e:	7860      	ldrb	r0, [r4, #1]
 8002750:	4611      	mov	r1, r2
 8002752:	f7ff fc71 	bl	8002038 <disk_ioctl>
 8002756:	3800      	subs	r0, #0
 8002758:	bf18      	it	ne
 800275a:	2001      	movne	r0, #1
 800275c:	bdf8      	pop	{r3, r4, r5, r6, r7, pc}

0800275e <ld_clust.isra.0>:
 800275e:	2803      	cmp	r0, #3
 8002760:	8b4b      	ldrh	r3, [r1, #26]
 8002762:	bf04      	itt	eq
 8002764:	8a8a      	ldrheq	r2, [r1, #20]
 8002766:	ea43 4302 	orreq.w	r3, r3, r2, lsl #16
 800276a:	4618      	mov	r0, r3
 800276c:	4770      	bx	lr

0800276e <get_fat.isra.0>:
 800276e:	2901      	cmp	r1, #1
 8002770:	b5f8      	push	{r3, r4, r5, r6, r7, lr}
 8002772:	4606      	mov	r6, r0
 8002774:	460c      	mov	r4, r1
 8002776:	d94e      	bls.n	8002816 <get_fat.isra.0+0xa8>
 8002778:	6983      	ldr	r3, [r0, #24]
 800277a:	4299      	cmp	r1, r3
 800277c:	d24b      	bcs.n	8002816 <get_fat.isra.0+0xa8>
 800277e:	7803      	ldrb	r3, [r0, #0]
 8002780:	2b02      	cmp	r3, #2
 8002782:	d029      	beq.n	80027d8 <get_fat.isra.0+0x6a>
 8002784:	2b03      	cmp	r3, #3
 8002786:	d034      	beq.n	80027f2 <get_fat.isra.0+0x84>
 8002788:	2b01      	cmp	r3, #1
 800278a:	d144      	bne.n	8002816 <get_fat.isra.0+0xa8>
 800278c:	eb01 0551 	add.w	r5, r1, r1, lsr #1
 8002790:	6a41      	ldr	r1, [r0, #36]	@ 0x24
 8002792:	eb01 2155 	add.w	r1, r1, r5, lsr #9
 8002796:	f7ff fd9e 	bl	80022d6 <move_window>
 800279a:	b110      	cbz	r0, 80027a2 <get_fat.isra.0+0x34>
 800279c:	f04f 30ff 	mov.w	r0, #4294967295
 80027a0:	bdf8      	pop	{r3, r4, r5, r6, r7, pc}
 80027a2:	1c6f      	adds	r7, r5, #1
 80027a4:	6a71      	ldr	r1, [r6, #36]	@ 0x24
 80027a6:	f3c5 0508 	ubfx	r5, r5, #0, #9
 80027aa:	4435      	add	r5, r6
 80027ac:	eb01 2157 	add.w	r1, r1, r7, lsr #9
 80027b0:	4630      	mov	r0, r6
 80027b2:	f895 5034 	ldrb.w	r5, [r5, #52]	@ 0x34
 80027b6:	f7ff fd8e 	bl	80022d6 <move_window>
 80027ba:	2800      	cmp	r0, #0
 80027bc:	d1ee      	bne.n	800279c <get_fat.isra.0+0x2e>
 80027be:	f3c7 0708 	ubfx	r7, r7, #0, #9
 80027c2:	4437      	add	r7, r6
 80027c4:	f897 3034 	ldrb.w	r3, [r7, #52]	@ 0x34
 80027c8:	ea45 2003 	orr.w	r0, r5, r3, lsl #8
 80027cc:	07e3      	lsls	r3, r4, #31
 80027ce:	bf4c      	ite	mi
 80027d0:	0900      	lsrmi	r0, r0, #4
 80027d2:	f3c0 000b 	ubfxpl	r0, r0, #0, #12
 80027d6:	e7e3      	b.n	80027a0 <get_fat.isra.0+0x32>
 80027d8:	6a41      	ldr	r1, [r0, #36]	@ 0x24
 80027da:	eb01 2114 	add.w	r1, r1, r4, lsr #8
 80027de:	f7ff fd7a 	bl	80022d6 <move_window>
 80027e2:	2800      	cmp	r0, #0
 80027e4:	d1da      	bne.n	800279c <get_fat.isra.0+0x2e>
 80027e6:	0064      	lsls	r4, r4, #1
 80027e8:	f404 74ff 	and.w	r4, r4, #510	@ 0x1fe
 80027ec:	4434      	add	r4, r6
 80027ee:	8ea0      	ldrh	r0, [r4, #52]	@ 0x34
 80027f0:	e7d6      	b.n	80027a0 <get_fat.isra.0+0x32>
 80027f2:	6a41      	ldr	r1, [r0, #36]	@ 0x24
 80027f4:	eb01 11d4 	add.w	r1, r1, r4, lsr #7
 80027f8:	f7ff fd6d 	bl	80022d6 <move_window>
 80027fc:	2800      	cmp	r0, #0
 80027fe:	d1cd      	bne.n	800279c <get_fat.isra.0+0x2e>
 8002800:	00a4      	lsls	r4, r4, #2
 8002802:	f106 0034 	add.w	r0, r6, #52	@ 0x34
 8002806:	f404 74fe 	and.w	r4, r4, #508	@ 0x1fc
 800280a:	4420      	add	r0, r4
 800280c:	f7ff fc22 	bl	8002054 <ld_dword>
 8002810:	f020 4070 	bic.w	r0, r0, #4026531840	@ 0xf0000000
 8002814:	e7c4      	b.n	80027a0 <get_fat.isra.0+0x32>
 8002816:	2001      	movs	r0, #1
 8002818:	e7c2      	b.n	80027a0 <get_fat.isra.0+0x32>

0800281a <remove_chain>:
 800281a:	b5f8      	push	{r3, r4, r5, r6, r7, lr}
 800281c:	460c      	mov	r4, r1
 800281e:	2c01      	cmp	r4, #1
 8002820:	6805      	ldr	r5, [r0, #0]
 8002822:	4606      	mov	r6, r0
 8002824:	4611      	mov	r1, r2
 8002826:	d92b      	bls.n	8002880 <remove_chain+0x66>
 8002828:	69ab      	ldr	r3, [r5, #24]
 800282a:	42a3      	cmp	r3, r4
 800282c:	d928      	bls.n	8002880 <remove_chain+0x66>
 800282e:	b12a      	cbz	r2, 800283c <remove_chain+0x22>
 8002830:	f04f 32ff 	mov.w	r2, #4294967295
 8002834:	4628      	mov	r0, r5
 8002836:	f7ff fecf 	bl	80025d8 <put_fat>
 800283a:	b938      	cbnz	r0, 800284c <remove_chain+0x32>
 800283c:	4621      	mov	r1, r4
 800283e:	6830      	ldr	r0, [r6, #0]
 8002840:	f7ff ff95 	bl	800276e <get_fat.isra.0>
 8002844:	4627      	mov	r7, r4
 8002846:	4604      	mov	r4, r0
 8002848:	b908      	cbnz	r0, 800284e <remove_chain+0x34>
 800284a:	2000      	movs	r0, #0
 800284c:	bdf8      	pop	{r3, r4, r5, r6, r7, pc}
 800284e:	2801      	cmp	r0, #1
 8002850:	d016      	beq.n	8002880 <remove_chain+0x66>
 8002852:	1c43      	adds	r3, r0, #1
 8002854:	d016      	beq.n	8002884 <remove_chain+0x6a>
 8002856:	2200      	movs	r2, #0
 8002858:	4639      	mov	r1, r7
 800285a:	4628      	mov	r0, r5
 800285c:	f7ff febc 	bl	80025d8 <put_fat>
 8002860:	2800      	cmp	r0, #0
 8002862:	d1f3      	bne.n	800284c <remove_chain+0x32>
 8002864:	e9d5 3205 	ldrd	r3, r2, [r5, #20]
 8002868:	1e91      	subs	r1, r2, #2
 800286a:	428b      	cmp	r3, r1
 800286c:	d205      	bcs.n	800287a <remove_chain+0x60>
 800286e:	3301      	adds	r3, #1
 8002870:	616b      	str	r3, [r5, #20]
 8002872:	792b      	ldrb	r3, [r5, #4]
 8002874:	f043 0301 	orr.w	r3, r3, #1
 8002878:	712b      	strb	r3, [r5, #4]
 800287a:	42a2      	cmp	r2, r4
 800287c:	d8de      	bhi.n	800283c <remove_chain+0x22>
 800287e:	e7e4      	b.n	800284a <remove_chain+0x30>
 8002880:	2002      	movs	r0, #2
 8002882:	e7e3      	b.n	800284c <remove_chain+0x32>
 8002884:	2001      	movs	r0, #1
 8002886:	e7e1      	b.n	800284c <remove_chain+0x32>

08002888 <create_chain>:
 8002888:	e92d 41f0 	stmdb	sp!, {r4, r5, r6, r7, r8, lr}
 800288c:	6805      	ldr	r5, [r0, #0]
 800288e:	4680      	mov	r8, r0
 8002890:	460f      	mov	r7, r1
 8002892:	b971      	cbnz	r1, 80028b2 <create_chain+0x2a>
 8002894:	692e      	ldr	r6, [r5, #16]
 8002896:	b1ee      	cbz	r6, 80028d4 <create_chain+0x4c>
 8002898:	69ab      	ldr	r3, [r5, #24]
 800289a:	429e      	cmp	r6, r3
 800289c:	bf28      	it	cs
 800289e:	2601      	movcs	r6, #1
 80028a0:	4634      	mov	r4, r6
 80028a2:	69ab      	ldr	r3, [r5, #24]
 80028a4:	3401      	adds	r4, #1
 80028a6:	42a3      	cmp	r3, r4
 80028a8:	d817      	bhi.n	80028da <create_chain+0x52>
 80028aa:	2e01      	cmp	r6, #1
 80028ac:	d114      	bne.n	80028d8 <create_chain+0x50>
 80028ae:	2400      	movs	r4, #0
 80028b0:	e006      	b.n	80028c0 <create_chain+0x38>
 80028b2:	4628      	mov	r0, r5
 80028b4:	f7ff ff5b 	bl	800276e <get_fat.isra.0>
 80028b8:	2801      	cmp	r0, #1
 80028ba:	4604      	mov	r4, r0
 80028bc:	d803      	bhi.n	80028c6 <create_chain+0x3e>
 80028be:	2401      	movs	r4, #1
 80028c0:	4620      	mov	r0, r4
 80028c2:	e8bd 81f0 	ldmia.w	sp!, {r4, r5, r6, r7, r8, pc}
 80028c6:	1c43      	adds	r3, r0, #1
 80028c8:	d030      	beq.n	800292c <create_chain+0xa4>
 80028ca:	69ab      	ldr	r3, [r5, #24]
 80028cc:	4283      	cmp	r3, r0
 80028ce:	d8f7      	bhi.n	80028c0 <create_chain+0x38>
 80028d0:	463e      	mov	r6, r7
 80028d2:	e7e5      	b.n	80028a0 <create_chain+0x18>
 80028d4:	2601      	movs	r6, #1
 80028d6:	e7e3      	b.n	80028a0 <create_chain+0x18>
 80028d8:	2402      	movs	r4, #2
 80028da:	f8d8 0000 	ldr.w	r0, [r8]
 80028de:	4621      	mov	r1, r4
 80028e0:	f7ff ff45 	bl	800276e <get_fat.isra.0>
 80028e4:	b130      	cbz	r0, 80028f4 <create_chain+0x6c>
 80028e6:	2801      	cmp	r0, #1
 80028e8:	d0e9      	beq.n	80028be <create_chain+0x36>
 80028ea:	3001      	adds	r0, #1
 80028ec:	d01e      	beq.n	800292c <create_chain+0xa4>
 80028ee:	42b4      	cmp	r4, r6
 80028f0:	d1d7      	bne.n	80028a2 <create_chain+0x1a>
 80028f2:	e7dc      	b.n	80028ae <create_chain+0x26>
 80028f4:	f04f 32ff 	mov.w	r2, #4294967295
 80028f8:	4621      	mov	r1, r4
 80028fa:	4628      	mov	r0, r5
 80028fc:	f7ff fe6c 	bl	80025d8 <put_fat>
 8002900:	b990      	cbnz	r0, 8002928 <create_chain+0xa0>
 8002902:	b957      	cbnz	r7, 800291a <create_chain+0x92>
 8002904:	e9d5 3205 	ldrd	r3, r2, [r5, #20]
 8002908:	3a02      	subs	r2, #2
 800290a:	4293      	cmp	r3, r2
 800290c:	612c      	str	r4, [r5, #16]
 800290e:	d910      	bls.n	8002932 <create_chain+0xaa>
 8002910:	792b      	ldrb	r3, [r5, #4]
 8002912:	f043 0301 	orr.w	r3, r3, #1
 8002916:	712b      	strb	r3, [r5, #4]
 8002918:	e7d2      	b.n	80028c0 <create_chain+0x38>
 800291a:	4622      	mov	r2, r4
 800291c:	4639      	mov	r1, r7
 800291e:	4628      	mov	r0, r5
 8002920:	f7ff fe5a 	bl	80025d8 <put_fat>
 8002924:	2800      	cmp	r0, #0
 8002926:	d0ed      	beq.n	8002904 <create_chain+0x7c>
 8002928:	2801      	cmp	r0, #1
 800292a:	d1c8      	bne.n	80028be <create_chain+0x36>
 800292c:	f04f 34ff 	mov.w	r4, #4294967295
 8002930:	e7c6      	b.n	80028c0 <create_chain+0x38>
 8002932:	3b01      	subs	r3, #1
 8002934:	616b      	str	r3, [r5, #20]
 8002936:	e7eb      	b.n	8002910 <create_chain+0x88>

08002938 <dir_next>:
 8002938:	6943      	ldr	r3, [r0, #20]
 800293a:	e92d 47f0 	stmdb	sp!, {r4, r5, r6, r7, r8, r9, sl, lr}
 800293e:	f103 0820 	add.w	r8, r3, #32
 8002942:	69c3      	ldr	r3, [r0, #28]
 8002944:	4605      	mov	r5, r0
 8002946:	468a      	mov	sl, r1
 8002948:	b18b      	cbz	r3, 800296e <dir_next+0x36>
 800294a:	f5b8 1f00 	cmp.w	r8, #2097152	@ 0x200000
 800294e:	d20e      	bcs.n	800296e <dir_next+0x36>
 8002950:	f3c8 0708 	ubfx	r7, r8, #0, #9
 8002954:	6804      	ldr	r4, [r0, #0]
 8002956:	2f00      	cmp	r7, #0
 8002958:	d14f      	bne.n	80029fa <dir_next+0xc2>
 800295a:	6981      	ldr	r1, [r0, #24]
 800295c:	3301      	adds	r3, #1
 800295e:	61c3      	str	r3, [r0, #28]
 8002960:	b941      	cbnz	r1, 8002974 <dir_next+0x3c>
 8002962:	8923      	ldrh	r3, [r4, #8]
 8002964:	ebb3 1f58 	cmp.w	r3, r8, lsr #5
 8002968:	d847      	bhi.n	80029fa <dir_next+0xc2>
 800296a:	2300      	movs	r3, #0
 800296c:	61eb      	str	r3, [r5, #28]
 800296e:	2004      	movs	r0, #4
 8002970:	e8bd 87f0 	ldmia.w	sp!, {r4, r5, r6, r7, r8, r9, sl, pc}
 8002974:	f8b4 900a 	ldrh.w	r9, [r4, #10]
 8002978:	f109 39ff 	add.w	r9, r9, #4294967295
 800297c:	ea19 2958 	ands.w	r9, r9, r8, lsr #9
 8002980:	d13b      	bne.n	80029fa <dir_next+0xc2>
 8002982:	4620      	mov	r0, r4
 8002984:	f7ff fef3 	bl	800276e <get_fat.isra.0>
 8002988:	2801      	cmp	r0, #1
 800298a:	4606      	mov	r6, r0
 800298c:	d801      	bhi.n	8002992 <dir_next+0x5a>
 800298e:	2002      	movs	r0, #2
 8002990:	e7ee      	b.n	8002970 <dir_next+0x38>
 8002992:	1c42      	adds	r2, r0, #1
 8002994:	d101      	bne.n	800299a <dir_next+0x62>
 8002996:	2001      	movs	r0, #1
 8002998:	e7ea      	b.n	8002970 <dir_next+0x38>
 800299a:	69a3      	ldr	r3, [r4, #24]
 800299c:	4283      	cmp	r3, r0
 800299e:	d826      	bhi.n	80029ee <dir_next+0xb6>
 80029a0:	f1ba 0f00 	cmp.w	sl, #0
 80029a4:	d0e1      	beq.n	800296a <dir_next+0x32>
 80029a6:	69a9      	ldr	r1, [r5, #24]
 80029a8:	4628      	mov	r0, r5
 80029aa:	f7ff ff6d 	bl	8002888 <create_chain>
 80029ae:	4606      	mov	r6, r0
 80029b0:	2800      	cmp	r0, #0
 80029b2:	d035      	beq.n	8002a20 <dir_next+0xe8>
 80029b4:	2801      	cmp	r0, #1
 80029b6:	d0ea      	beq.n	800298e <dir_next+0x56>
 80029b8:	1c43      	adds	r3, r0, #1
 80029ba:	d0ec      	beq.n	8002996 <dir_next+0x5e>
 80029bc:	4620      	mov	r0, r4
 80029be:	f7ff fc50 	bl	8002262 <sync_window>
 80029c2:	4601      	mov	r1, r0
 80029c4:	2800      	cmp	r0, #0
 80029c6:	d1e6      	bne.n	8002996 <dir_next+0x5e>
 80029c8:	f104 0034 	add.w	r0, r4, #52	@ 0x34
 80029cc:	f44f 7200 	mov.w	r2, #512	@ 0x200
 80029d0:	f7ff fb4a 	bl	8002068 <mem_set>
 80029d4:	4631      	mov	r1, r6
 80029d6:	4620      	mov	r0, r4
 80029d8:	f7ff fbe6 	bl	80021a8 <clust2sect>
 80029dc:	f04f 0a01 	mov.w	sl, #1
 80029e0:	8963      	ldrh	r3, [r4, #10]
 80029e2:	6320      	str	r0, [r4, #48]	@ 0x30
 80029e4:	4599      	cmp	r9, r3
 80029e6:	d30f      	bcc.n	8002a08 <dir_next+0xd0>
 80029e8:	eba0 0009 	sub.w	r0, r0, r9
 80029ec:	6320      	str	r0, [r4, #48]	@ 0x30
 80029ee:	61ae      	str	r6, [r5, #24]
 80029f0:	4631      	mov	r1, r6
 80029f2:	4620      	mov	r0, r4
 80029f4:	f7ff fbd8 	bl	80021a8 <clust2sect>
 80029f8:	61e8      	str	r0, [r5, #28]
 80029fa:	3434      	adds	r4, #52	@ 0x34
 80029fc:	443c      	add	r4, r7
 80029fe:	f8c5 8014 	str.w	r8, [r5, #20]
 8002a02:	622c      	str	r4, [r5, #32]
 8002a04:	2000      	movs	r0, #0
 8002a06:	e7b3      	b.n	8002970 <dir_next+0x38>
 8002a08:	f884 a003 	strb.w	sl, [r4, #3]
 8002a0c:	4620      	mov	r0, r4
 8002a0e:	f7ff fc28 	bl	8002262 <sync_window>
 8002a12:	2800      	cmp	r0, #0
 8002a14:	d1bf      	bne.n	8002996 <dir_next+0x5e>
 8002a16:	6b20      	ldr	r0, [r4, #48]	@ 0x30
 8002a18:	f109 0901 	add.w	r9, r9, #1
 8002a1c:	3001      	adds	r0, #1
 8002a1e:	e7df      	b.n	80029e0 <dir_next+0xa8>
 8002a20:	2007      	movs	r0, #7
 8002a22:	e7a5      	b.n	8002970 <dir_next+0x38>

08002a24 <dir_sdi>:
 8002a24:	f5b1 1f00 	cmp.w	r1, #2097152	@ 0x200000
 8002a28:	b5f8      	push	{r3, r4, r5, r6, r7, lr}
 8002a2a:	6805      	ldr	r5, [r0, #0]
 8002a2c:	4606      	mov	r6, r0
 8002a2e:	460c      	mov	r4, r1
 8002a30:	d301      	bcc.n	8002a36 <dir_sdi+0x12>
 8002a32:	2002      	movs	r0, #2
 8002a34:	bdf8      	pop	{r3, r4, r5, r6, r7, pc}
 8002a36:	06ca      	lsls	r2, r1, #27
 8002a38:	d1fb      	bne.n	8002a32 <dir_sdi+0xe>
 8002a3a:	6882      	ldr	r2, [r0, #8]
 8002a3c:	6141      	str	r1, [r0, #20]
 8002a3e:	b9ba      	cbnz	r2, 8002a70 <dir_sdi+0x4c>
 8002a40:	782b      	ldrb	r3, [r5, #0]
 8002a42:	2b02      	cmp	r3, #2
 8002a44:	d901      	bls.n	8002a4a <dir_sdi+0x26>
 8002a46:	6aab      	ldr	r3, [r5, #40]	@ 0x28
 8002a48:	b99b      	cbnz	r3, 8002a72 <dir_sdi+0x4e>
 8002a4a:	892b      	ldrh	r3, [r5, #8]
 8002a4c:	ebb3 1f54 	cmp.w	r3, r4, lsr #5
 8002a50:	d9ef      	bls.n	8002a32 <dir_sdi+0xe>
 8002a52:	6aa8      	ldr	r0, [r5, #40]	@ 0x28
 8002a54:	e9c6 2006 	strd	r2, r0, [r6, #24]
 8002a58:	2800      	cmp	r0, #0
 8002a5a:	d0ea      	beq.n	8002a32 <dir_sdi+0xe>
 8002a5c:	eb00 2054 	add.w	r0, r0, r4, lsr #9
 8002a60:	3534      	adds	r5, #52	@ 0x34
 8002a62:	f3c4 0408 	ubfx	r4, r4, #0, #9
 8002a66:	4425      	add	r5, r4
 8002a68:	61f0      	str	r0, [r6, #28]
 8002a6a:	6235      	str	r5, [r6, #32]
 8002a6c:	2000      	movs	r0, #0
 8002a6e:	e7e1      	b.n	8002a34 <dir_sdi+0x10>
 8002a70:	4613      	mov	r3, r2
 8002a72:	896f      	ldrh	r7, [r5, #10]
 8002a74:	461a      	mov	r2, r3
 8002a76:	027f      	lsls	r7, r7, #9
 8002a78:	42bc      	cmp	r4, r7
 8002a7a:	4611      	mov	r1, r2
 8002a7c:	d203      	bcs.n	8002a86 <dir_sdi+0x62>
 8002a7e:	4628      	mov	r0, r5
 8002a80:	f7ff fb92 	bl	80021a8 <clust2sect>
 8002a84:	e7e6      	b.n	8002a54 <dir_sdi+0x30>
 8002a86:	6830      	ldr	r0, [r6, #0]
 8002a88:	f7ff fe71 	bl	800276e <get_fat.isra.0>
 8002a8c:	1c43      	adds	r3, r0, #1
 8002a8e:	4602      	mov	r2, r0
 8002a90:	d006      	beq.n	8002aa0 <dir_sdi+0x7c>
 8002a92:	2801      	cmp	r0, #1
 8002a94:	d9cd      	bls.n	8002a32 <dir_sdi+0xe>
 8002a96:	69ab      	ldr	r3, [r5, #24]
 8002a98:	4283      	cmp	r3, r0
 8002a9a:	d9ca      	bls.n	8002a32 <dir_sdi+0xe>
 8002a9c:	1be4      	subs	r4, r4, r7
 8002a9e:	e7eb      	b.n	8002a78 <dir_sdi+0x54>
 8002aa0:	2001      	movs	r0, #1
 8002aa2:	e7c7      	b.n	8002a34 <dir_sdi+0x10>

08002aa4 <dir_find>:
 8002aa4:	e92d 4ff0 	stmdb	sp!, {r4, r5, r6, r7, r8, r9, sl, fp, lr}
 8002aa8:	b085      	sub	sp, #20
 8002aaa:	6803      	ldr	r3, [r0, #0]
 8002aac:	9300      	str	r3, [sp, #0]
 8002aae:	2100      	movs	r1, #0
 8002ab0:	4604      	mov	r4, r0
 8002ab2:	f7ff ffb7 	bl	8002a24 <dir_sdi>
 8002ab6:	4606      	mov	r6, r0
 8002ab8:	2800      	cmp	r0, #0
 8002aba:	f040 8096 	bne.w	8002bea <dir_find+0x146>
 8002abe:	f04f 3aff 	mov.w	sl, #4294967295
 8002ac2:	f04f 08ff 	mov.w	r8, #255	@ 0xff
 8002ac6:	f8c4 a030 	str.w	sl, [r4, #48]	@ 0x30
 8002aca:	46c1      	mov	r9, r8
 8002acc:	69e1      	ldr	r1, [r4, #28]
 8002ace:	9800      	ldr	r0, [sp, #0]
 8002ad0:	f7ff fc01 	bl	80022d6 <move_window>
 8002ad4:	4606      	mov	r6, r0
 8002ad6:	2800      	cmp	r0, #0
 8002ad8:	f040 8087 	bne.w	8002bea <dir_find+0x146>
 8002adc:	6a25      	ldr	r5, [r4, #32]
 8002ade:	782f      	ldrb	r7, [r5, #0]
 8002ae0:	2f00      	cmp	r7, #0
 8002ae2:	f000 8086 	beq.w	8002bf2 <dir_find+0x14e>
 8002ae6:	7aea      	ldrb	r2, [r5, #11]
 8002ae8:	2fe5      	cmp	r7, #229	@ 0xe5
 8002aea:	f002 033f 	and.w	r3, r2, #63	@ 0x3f
 8002aee:	71a3      	strb	r3, [r4, #6]
 8002af0:	d003      	beq.n	8002afa <dir_find+0x56>
 8002af2:	0710      	lsls	r0, r2, #28
 8002af4:	d504      	bpl.n	8002b00 <dir_find+0x5c>
 8002af6:	2b0f      	cmp	r3, #15
 8002af8:	d004      	beq.n	8002b04 <dir_find+0x60>
 8002afa:	f8c4 a030 	str.w	sl, [r4, #48]	@ 0x30
 8002afe:	e04e      	b.n	8002b9e <dir_find+0xfa>
 8002b00:	2b0f      	cmp	r3, #15
 8002b02:	d154      	bne.n	8002bae <dir_find+0x10a>
 8002b04:	f894 302f 	ldrb.w	r3, [r4, #47]	@ 0x2f
 8002b08:	0659      	lsls	r1, r3, #25
 8002b0a:	d43e      	bmi.n	8002b8a <dir_find+0xe6>
 8002b0c:	067a      	lsls	r2, r7, #25
 8002b0e:	d544      	bpl.n	8002b9a <dir_find+0xf6>
 8002b10:	6963      	ldr	r3, [r4, #20]
 8002b12:	f895 800d 	ldrb.w	r8, [r5, #13]
 8002b16:	6323      	str	r3, [r4, #48]	@ 0x30
 8002b18:	f007 07bf 	and.w	r7, r7, #191	@ 0xbf
 8002b1c:	7b6b      	ldrb	r3, [r5, #13]
 8002b1e:	4543      	cmp	r3, r8
 8002b20:	d13d      	bne.n	8002b9e <dir_find+0xfa>
 8002b22:	8b6b      	ldrh	r3, [r5, #26]
 8002b24:	2b00      	cmp	r3, #0
 8002b26:	d13a      	bne.n	8002b9e <dir_find+0xfa>
 8002b28:	782e      	ldrb	r6, [r5, #0]
 8002b2a:	9b00      	ldr	r3, [sp, #0]
 8002b2c:	f8df 90cc 	ldr.w	r9, [pc, #204]	@ 8002bfc <dir_find+0x158>
 8002b30:	f8d3 b00c 	ldr.w	fp, [r3, #12]
 8002b34:	f006 063f 	and.w	r6, r6, #63	@ 0x3f
 8002b38:	3e01      	subs	r6, #1
 8002b3a:	230d      	movs	r3, #13
 8002b3c:	435e      	muls	r6, r3
 8002b3e:	2201      	movs	r2, #1
 8002b40:	f819 3b01 	ldrb.w	r3, [r9], #1
 8002b44:	5aeb      	ldrh	r3, [r5, r3]
 8002b46:	b36a      	cbz	r2, 8002ba4 <dir_find+0x100>
 8002b48:	2efe      	cmp	r6, #254	@ 0xfe
 8002b4a:	d828      	bhi.n	8002b9e <dir_find+0xfa>
 8002b4c:	4618      	mov	r0, r3
 8002b4e:	9303      	str	r3, [sp, #12]
 8002b50:	f000 fe7c 	bl	800384c <ff_wtoupper>
 8002b54:	1c71      	adds	r1, r6, #1
 8002b56:	9002      	str	r0, [sp, #8]
 8002b58:	f83b 0016 	ldrh.w	r0, [fp, r6, lsl #1]
 8002b5c:	9101      	str	r1, [sp, #4]
 8002b5e:	f000 fe75 	bl	800384c <ff_wtoupper>
 8002b62:	9a02      	ldr	r2, [sp, #8]
 8002b64:	4282      	cmp	r2, r0
 8002b66:	d11a      	bne.n	8002b9e <dir_find+0xfa>
 8002b68:	9b03      	ldr	r3, [sp, #12]
 8002b6a:	9901      	ldr	r1, [sp, #4]
 8002b6c:	461a      	mov	r2, r3
 8002b6e:	460e      	mov	r6, r1
 8002b70:	4b21      	ldr	r3, [pc, #132]	@ (8002bf8 <dir_find+0x154>)
 8002b72:	454b      	cmp	r3, r9
 8002b74:	d1e4      	bne.n	8002b40 <dir_find+0x9c>
 8002b76:	782b      	ldrb	r3, [r5, #0]
 8002b78:	065b      	lsls	r3, r3, #25
 8002b7a:	d503      	bpl.n	8002b84 <dir_find+0xe0>
 8002b7c:	b112      	cbz	r2, 8002b84 <dir_find+0xe0>
 8002b7e:	f83b 3016 	ldrh.w	r3, [fp, r6, lsl #1]
 8002b82:	b963      	cbnz	r3, 8002b9e <dir_find+0xfa>
 8002b84:	3f01      	subs	r7, #1
 8002b86:	fa5f f987 	uxtb.w	r9, r7
 8002b8a:	2100      	movs	r1, #0
 8002b8c:	4620      	mov	r0, r4
 8002b8e:	f7ff fed3 	bl	8002938 <dir_next>
 8002b92:	4606      	mov	r6, r0
 8002b94:	2800      	cmp	r0, #0
 8002b96:	d099      	beq.n	8002acc <dir_find+0x28>
 8002b98:	e027      	b.n	8002bea <dir_find+0x146>
 8002b9a:	45b9      	cmp	r9, r7
 8002b9c:	d0be      	beq.n	8002b1c <dir_find+0x78>
 8002b9e:	f04f 09ff 	mov.w	r9, #255	@ 0xff
 8002ba2:	e7f2      	b.n	8002b8a <dir_find+0xe6>
 8002ba4:	f64f 71ff 	movw	r1, #65535	@ 0xffff
 8002ba8:	428b      	cmp	r3, r1
 8002baa:	d0e1      	beq.n	8002b70 <dir_find+0xcc>
 8002bac:	e7f7      	b.n	8002b9e <dir_find+0xfa>
 8002bae:	f1b9 0f00 	cmp.w	r9, #0
 8002bb2:	d104      	bne.n	8002bbe <dir_find+0x11a>
 8002bb4:	4628      	mov	r0, r5
 8002bb6:	f7ff fb13 	bl	80021e0 <sum_sfn>
 8002bba:	4540      	cmp	r0, r8
 8002bbc:	d015      	beq.n	8002bea <dir_find+0x146>
 8002bbe:	f894 602f 	ldrb.w	r6, [r4, #47]	@ 0x2f
 8002bc2:	f016 0601 	ands.w	r6, r6, #1
 8002bc6:	d198      	bne.n	8002afa <dir_find+0x56>
 8002bc8:	f104 0224 	add.w	r2, r4, #36	@ 0x24
 8002bcc:	f105 010b 	add.w	r1, r5, #11
 8002bd0:	f815 3b01 	ldrb.w	r3, [r5], #1
 8002bd4:	f812 0b01 	ldrb.w	r0, [r2], #1
 8002bd8:	428d      	cmp	r5, r1
 8002bda:	eba3 0300 	sub.w	r3, r3, r0
 8002bde:	d002      	beq.n	8002be6 <dir_find+0x142>
 8002be0:	2b00      	cmp	r3, #0
 8002be2:	d0f5      	beq.n	8002bd0 <dir_find+0x12c>
 8002be4:	e789      	b.n	8002afa <dir_find+0x56>
 8002be6:	2b00      	cmp	r3, #0
 8002be8:	d187      	bne.n	8002afa <dir_find+0x56>
 8002bea:	4630      	mov	r0, r6
 8002bec:	b005      	add	sp, #20
 8002bee:	e8bd 8ff0 	ldmia.w	sp!, {r4, r5, r6, r7, r8, r9, sl, fp, pc}
 8002bf2:	2604      	movs	r6, #4
 8002bf4:	e7f9      	b.n	8002bea <dir_find+0x146>
 8002bf6:	bf00      	nop
 8002bf8:	08003996 	.word	0x08003996
 8002bfc:	08003989 	.word	0x08003989

08002c00 <dir_register>:
 8002c00:	e92d 4ff0 	stmdb	sp!, {r4, r5, r6, r7, r8, r9, sl, fp, lr}
 8002c04:	f890 402f 	ldrb.w	r4, [r0, #47]	@ 0x2f
 8002c08:	f014 04a0 	ands.w	r4, r4, #160	@ 0xa0
 8002c0c:	b089      	sub	sp, #36	@ 0x24
 8002c0e:	4605      	mov	r5, r0
 8002c10:	f040 8135 	bne.w	8002e7e <dir_register+0x27e>
 8002c14:	6806      	ldr	r6, [r0, #0]
 8002c16:	68f2      	ldr	r2, [r6, #12]
 8002c18:	f832 3014 	ldrh.w	r3, [r2, r4, lsl #1]
 8002c1c:	2b00      	cmp	r3, #0
 8002c1e:	d169      	bne.n	8002cf4 <dir_register+0xf4>
 8002c20:	f105 0724 	add.w	r7, r5, #36	@ 0x24
 8002c24:	220c      	movs	r2, #12
 8002c26:	4639      	mov	r1, r7
 8002c28:	a805      	add	r0, sp, #20
 8002c2a:	f7ff fb3f 	bl	80022ac <mem_cpy.part.0>
 8002c2e:	f89d b01f 	ldrb.w	fp, [sp, #31]
 8002c32:	f01b 0f01 	tst.w	fp, #1
 8002c36:	d078      	beq.n	8002d2a <dir_register+0x12a>
 8002c38:	2340      	movs	r3, #64	@ 0x40
 8002c3a:	f8df a248 	ldr.w	sl, [pc, #584]	@ 8002e84 <dir_register+0x284>
 8002c3e:	f885 302f 	strb.w	r3, [r5, #47]	@ 0x2f
 8002c42:	f04f 0801 	mov.w	r8, #1
 8002c46:	220b      	movs	r2, #11
 8002c48:	a905      	add	r1, sp, #20
 8002c4a:	4638      	mov	r0, r7
 8002c4c:	f8d6 900c 	ldr.w	r9, [r6, #12]
 8002c50:	f7ff fb2c 	bl	80022ac <mem_cpy.part.0>
 8002c54:	f1b8 0f05 	cmp.w	r8, #5
 8002c58:	d95d      	bls.n	8002d16 <dir_register+0x116>
 8002c5a:	f1a9 0102 	sub.w	r1, r9, #2
 8002c5e:	4643      	mov	r3, r8
 8002c60:	f831 2f02 	ldrh.w	r2, [r1, #2]!
 8002c64:	2a00      	cmp	r2, #0
 8002c66:	d147      	bne.n	8002cf8 <dir_register+0xf8>
 8002c68:	a805      	add	r0, sp, #20
 8002c6a:	2207      	movs	r2, #7
 8002c6c:	f003 0c0f 	and.w	ip, r3, #15
 8002c70:	f10c 0130 	add.w	r1, ip, #48	@ 0x30
 8002c74:	2939      	cmp	r1, #57	@ 0x39
 8002c76:	bf88      	it	hi
 8002c78:	f10c 0137 	addhi.w	r1, ip, #55	@ 0x37
 8002c7c:	2b0f      	cmp	r3, #15
 8002c7e:	f800 1d01 	strb.w	r1, [r0, #-1]!
 8002c82:	f102 32ff 	add.w	r2, r2, #4294967295
 8002c86:	ea4f 1113 	mov.w	r1, r3, lsr #4
 8002c8a:	d846      	bhi.n	8002d1a <dir_register+0x11a>
 8002c8c:	f102 0320 	add.w	r3, r2, #32
 8002c90:	446b      	add	r3, sp
 8002c92:	217e      	movs	r1, #126	@ 0x7e
 8002c94:	f803 1c14 	strb.w	r1, [r3, #-20]
 8002c98:	f105 0123 	add.w	r1, r5, #35	@ 0x23
 8002c9c:	4608      	mov	r0, r1
 8002c9e:	2300      	movs	r3, #0
 8002ca0:	429a      	cmp	r2, r3
 8002ca2:	d006      	beq.n	8002cb2 <dir_register+0xb2>
 8002ca4:	f810 cf01 	ldrb.w	ip, [r0, #1]!
 8002ca8:	f1bc 0f20 	cmp.w	ip, #32
 8002cac:	f103 0e01 	add.w	lr, r3, #1
 8002cb0:	d135      	bne.n	8002d1e <dir_register+0x11e>
 8002cb2:	2a07      	cmp	r2, #7
 8002cb4:	bf9e      	ittt	ls
 8002cb6:	f102 0018 	addls.w	r0, r2, #24
 8002cba:	f102 0020 	addls.w	r0, r2, #32
 8002cbe:	4468      	addls	r0, sp
 8002cc0:	f103 0301 	add.w	r3, r3, #1
 8002cc4:	bf96      	itet	ls
 8002cc6:	f810 0c14 	ldrbls.w	r0, [r0, #-20]
 8002cca:	2020      	movhi	r0, #32
 8002ccc:	3201      	addls	r2, #1
 8002cce:	2b07      	cmp	r3, #7
 8002cd0:	54c8      	strb	r0, [r1, r3]
 8002cd2:	d9ee      	bls.n	8002cb2 <dir_register+0xb2>
 8002cd4:	4628      	mov	r0, r5
 8002cd6:	f7ff fee5 	bl	8002aa4 <dir_find>
 8002cda:	4681      	mov	r9, r0
 8002cdc:	bb08      	cbnz	r0, 8002d22 <dir_register+0x122>
 8002cde:	f108 0801 	add.w	r8, r8, #1
 8002ce2:	f1b8 0f64 	cmp.w	r8, #100	@ 0x64
 8002ce6:	d1ae      	bne.n	8002c46 <dir_register+0x46>
 8002ce8:	f04f 0907 	mov.w	r9, #7
 8002cec:	4648      	mov	r0, r9
 8002cee:	b009      	add	sp, #36	@ 0x24
 8002cf0:	e8bd 8ff0 	ldmia.w	sp!, {r4, r5, r6, r7, r8, r9, sl, fp, pc}
 8002cf4:	3401      	adds	r4, #1
 8002cf6:	e78f      	b.n	8002c18 <dir_register+0x18>
 8002cf8:	2010      	movs	r0, #16
 8002cfa:	f002 0c01 	and.w	ip, r2, #1
 8002cfe:	eb0c 0343 	add.w	r3, ip, r3, lsl #1
 8002d02:	f413 3f80 	tst.w	r3, #65536	@ 0x10000
 8002d06:	bf18      	it	ne
 8002d08:	ea83 030a 	eorne.w	r3, r3, sl
 8002d0c:	3801      	subs	r0, #1
 8002d0e:	ea4f 0252 	mov.w	r2, r2, lsr #1
 8002d12:	d1f2      	bne.n	8002cfa <dir_register+0xfa>
 8002d14:	e7a4      	b.n	8002c60 <dir_register+0x60>
 8002d16:	4643      	mov	r3, r8
 8002d18:	e7a6      	b.n	8002c68 <dir_register+0x68>
 8002d1a:	460b      	mov	r3, r1
 8002d1c:	e7a6      	b.n	8002c6c <dir_register+0x6c>
 8002d1e:	4673      	mov	r3, lr
 8002d20:	e7be      	b.n	8002ca0 <dir_register+0xa0>
 8002d22:	2804      	cmp	r0, #4
 8002d24:	d1e2      	bne.n	8002cec <dir_register+0xec>
 8002d26:	f885 b02f 	strb.w	fp, [r5, #47]	@ 0x2f
 8002d2a:	f01b 0f02 	tst.w	fp, #2
 8002d2e:	bf18      	it	ne
 8002d30:	340c      	addne	r4, #12
 8002d32:	f04f 0100 	mov.w	r1, #0
 8002d36:	4628      	mov	r0, r5
 8002d38:	bf18      	it	ne
 8002d3a:	230d      	movne	r3, #13
 8002d3c:	f8d5 a000 	ldr.w	sl, [r5]
 8002d40:	bf16      	itet	ne
 8002d42:	fbb4 f4f3 	udivne	r4, r4, r3
 8002d46:	2401      	moveq	r4, #1
 8002d48:	3401      	addne	r4, #1
 8002d4a:	f7ff fe6b 	bl	8002a24 <dir_sdi>
 8002d4e:	4681      	mov	r9, r0
 8002d50:	2800      	cmp	r0, #0
 8002d52:	f040 808f 	bne.w	8002e74 <dir_register+0x274>
 8002d56:	4680      	mov	r8, r0
 8002d58:	69e9      	ldr	r1, [r5, #28]
 8002d5a:	4650      	mov	r0, sl
 8002d5c:	f7ff fabb 	bl	80022d6 <move_window>
 8002d60:	4681      	mov	r9, r0
 8002d62:	2800      	cmp	r0, #0
 8002d64:	f040 8086 	bne.w	8002e74 <dir_register+0x274>
 8002d68:	6a2b      	ldr	r3, [r5, #32]
 8002d6a:	781b      	ldrb	r3, [r3, #0]
 8002d6c:	2be5      	cmp	r3, #229	@ 0xe5
 8002d6e:	d001      	beq.n	8002d74 <dir_register+0x174>
 8002d70:	2b00      	cmp	r3, #0
 8002d72:	d176      	bne.n	8002e62 <dir_register+0x262>
 8002d74:	f108 0801 	add.w	r8, r8, #1
 8002d78:	4544      	cmp	r4, r8
 8002d7a:	d173      	bne.n	8002e64 <dir_register+0x264>
 8002d7c:	3c01      	subs	r4, #1
 8002d7e:	d055      	beq.n	8002e2c <dir_register+0x22c>
 8002d80:	6969      	ldr	r1, [r5, #20]
 8002d82:	4628      	mov	r0, r5
 8002d84:	eba1 1144 	sub.w	r1, r1, r4, lsl #5
 8002d88:	f7ff fe4c 	bl	8002a24 <dir_sdi>
 8002d8c:	4681      	mov	r9, r0
 8002d8e:	2800      	cmp	r0, #0
 8002d90:	d1ac      	bne.n	8002cec <dir_register+0xec>
 8002d92:	4638      	mov	r0, r7
 8002d94:	f7ff fa24 	bl	80021e0 <sum_sfn>
 8002d98:	f64f 78ff 	movw	r8, #65535	@ 0xffff
 8002d9c:	9001      	str	r0, [sp, #4]
 8002d9e:	69e9      	ldr	r1, [r5, #28]
 8002da0:	4630      	mov	r0, r6
 8002da2:	f7ff fa98 	bl	80022d6 <move_window>
 8002da6:	4681      	mov	r9, r0
 8002da8:	2800      	cmp	r0, #0
 8002daa:	d19f      	bne.n	8002cec <dir_register+0xec>
 8002dac:	6a2b      	ldr	r3, [r5, #32]
 8002dae:	9a01      	ldr	r2, [sp, #4]
 8002db0:	f8d6 e00c 	ldr.w	lr, [r6, #12]
 8002db4:	735a      	strb	r2, [r3, #13]
 8002db6:	b2e1      	uxtb	r1, r4
 8002db8:	f04f 020f 	mov.w	r2, #15
 8002dbc:	f04f 0c0d 	mov.w	ip, #13
 8002dc0:	72da      	strb	r2, [r3, #11]
 8002dc2:	f8df a0c4 	ldr.w	sl, [pc, #196]	@ 8002e88 <dir_register+0x288>
 8002dc6:	7318      	strb	r0, [r3, #12]
 8002dc8:	1e4a      	subs	r2, r1, #1
 8002dca:	fb0c f202 	mul.w	r2, ip, r2
 8002dce:	7698      	strb	r0, [r3, #26]
 8002dd0:	76d8      	strb	r0, [r3, #27]
 8002dd2:	4684      	mov	ip, r0
 8002dd4:	f81a 9b01 	ldrb.w	r9, [sl], #1
 8002dd8:	4540      	cmp	r0, r8
 8002dda:	bf18      	it	ne
 8002ddc:	f83e 0012 	ldrhne.w	r0, [lr, r2, lsl #1]
 8002de0:	f803 0009 	strb.w	r0, [r3, r9]
 8002de4:	eb03 0b09 	add.w	fp, r3, r9
 8002de8:	f10c 0c01 	add.w	ip, ip, #1
 8002dec:	bf18      	it	ne
 8002dee:	3201      	addne	r2, #1
 8002df0:	ea4f 2910 	mov.w	r9, r0, lsr #8
 8002df4:	2800      	cmp	r0, #0
 8002df6:	bf08      	it	eq
 8002df8:	4640      	moveq	r0, r8
 8002dfa:	f1bc 0f0d 	cmp.w	ip, #13
 8002dfe:	f88b 9001 	strb.w	r9, [fp, #1]
 8002e02:	d1e7      	bne.n	8002dd4 <dir_register+0x1d4>
 8002e04:	4540      	cmp	r0, r8
 8002e06:	d002      	beq.n	8002e0e <dir_register+0x20e>
 8002e08:	f83e 2012 	ldrh.w	r2, [lr, r2, lsl #1]
 8002e0c:	b90a      	cbnz	r2, 8002e12 <dir_register+0x212>
 8002e0e:	f041 0140 	orr.w	r1, r1, #64	@ 0x40
 8002e12:	7019      	strb	r1, [r3, #0]
 8002e14:	2301      	movs	r3, #1
 8002e16:	70f3      	strb	r3, [r6, #3]
 8002e18:	2100      	movs	r1, #0
 8002e1a:	4628      	mov	r0, r5
 8002e1c:	f7ff fd8c 	bl	8002938 <dir_next>
 8002e20:	4681      	mov	r9, r0
 8002e22:	2800      	cmp	r0, #0
 8002e24:	f47f af62 	bne.w	8002cec <dir_register+0xec>
 8002e28:	3c01      	subs	r4, #1
 8002e2a:	d1b8      	bne.n	8002d9e <dir_register+0x19e>
 8002e2c:	69e9      	ldr	r1, [r5, #28]
 8002e2e:	4630      	mov	r0, r6
 8002e30:	f7ff fa51 	bl	80022d6 <move_window>
 8002e34:	4681      	mov	r9, r0
 8002e36:	2800      	cmp	r0, #0
 8002e38:	f47f af58 	bne.w	8002cec <dir_register+0xec>
 8002e3c:	4601      	mov	r1, r0
 8002e3e:	2220      	movs	r2, #32
 8002e40:	6a28      	ldr	r0, [r5, #32]
 8002e42:	f7ff f911 	bl	8002068 <mem_set>
 8002e46:	220b      	movs	r2, #11
 8002e48:	6a28      	ldr	r0, [r5, #32]
 8002e4a:	4639      	mov	r1, r7
 8002e4c:	f7ff fa2e 	bl	80022ac <mem_cpy.part.0>
 8002e50:	f895 302f 	ldrb.w	r3, [r5, #47]	@ 0x2f
 8002e54:	6a2a      	ldr	r2, [r5, #32]
 8002e56:	f003 0318 	and.w	r3, r3, #24
 8002e5a:	7313      	strb	r3, [r2, #12]
 8002e5c:	2301      	movs	r3, #1
 8002e5e:	70f3      	strb	r3, [r6, #3]
 8002e60:	e744      	b.n	8002cec <dir_register+0xec>
 8002e62:	4680      	mov	r8, r0
 8002e64:	2101      	movs	r1, #1
 8002e66:	4628      	mov	r0, r5
 8002e68:	f7ff fd66 	bl	8002938 <dir_next>
 8002e6c:	4681      	mov	r9, r0
 8002e6e:	2800      	cmp	r0, #0
 8002e70:	f43f af72 	beq.w	8002d58 <dir_register+0x158>
 8002e74:	f1b9 0f04 	cmp.w	r9, #4
 8002e78:	f43f af36 	beq.w	8002ce8 <dir_register+0xe8>
 8002e7c:	e736      	b.n	8002cec <dir_register+0xec>
 8002e7e:	f04f 0906 	mov.w	r9, #6
 8002e82:	e733      	b.n	8002cec <dir_register+0xec>
 8002e84:	00011021 	.word	0x00011021
 8002e88:	08003989 	.word	0x08003989

08002e8c <follow_path>:
 8002e8c:	e92d 4ff0 	stmdb	sp!, {r4, r5, r6, r7, r8, r9, sl, fp, lr}
 8002e90:	b085      	sub	sp, #20
 8002e92:	6803      	ldr	r3, [r0, #0]
 8002e94:	9301      	str	r3, [sp, #4]
 8002e96:	4606      	mov	r6, r0
 8002e98:	4688      	mov	r8, r1
 8002e9a:	f811 3b01 	ldrb.w	r3, [r1], #1
 8002e9e:	2b2f      	cmp	r3, #47	@ 0x2f
 8002ea0:	d0fa      	beq.n	8002e98 <follow_path+0xc>
 8002ea2:	2b5c      	cmp	r3, #92	@ 0x5c
 8002ea4:	d0f8      	beq.n	8002e98 <follow_path+0xc>
 8002ea6:	f04f 0a00 	mov.w	sl, #0
 8002eaa:	f8c6 a008 	str.w	sl, [r6, #8]
 8002eae:	f898 3000 	ldrb.w	r3, [r8]
 8002eb2:	2b1f      	cmp	r3, #31
 8002eb4:	f200 80b3 	bhi.w	800301e <follow_path+0x192>
 8002eb8:	2380      	movs	r3, #128	@ 0x80
 8002eba:	4651      	mov	r1, sl
 8002ebc:	4630      	mov	r0, r6
 8002ebe:	f886 302f 	strb.w	r3, [r6, #47]	@ 0x2f
 8002ec2:	b005      	add	sp, #20
 8002ec4:	e8bd 4ff0 	ldmia.w	sp!, {r4, r5, r6, r7, r8, r9, sl, fp, lr}
 8002ec8:	f7ff bdac 	b.w	8002a24 <dir_sdi>
 8002ecc:	3501      	adds	r5, #1
 8002ece:	e0ba      	b.n	8003046 <follow_path+0x1ba>
 8002ed0:	f5b5 7f80 	cmp.w	r5, #256	@ 0x100
 8002ed4:	e9cd 2302 	strd	r2, r3, [sp, #8]
 8002ed8:	d00e      	beq.n	8002ef8 <follow_path+0x6c>
 8002eda:	2101      	movs	r1, #1
 8002edc:	4620      	mov	r0, r4
 8002ede:	f000 fc99 	bl	8003814 <ff_convert>
 8002ee2:	b148      	cbz	r0, 8002ef8 <follow_path+0x6c>
 8002ee4:	287f      	cmp	r0, #127	@ 0x7f
 8002ee6:	e9dd 2302 	ldrd	r2, r3, [sp, #8]
 8002eea:	d807      	bhi.n	8002efc <follow_path+0x70>
 8002eec:	4c7f      	ldr	r4, [pc, #508]	@ (80030ec <follow_path+0x260>)
 8002eee:	f814 1b01 	ldrb.w	r1, [r4], #1
 8002ef2:	b119      	cbz	r1, 8002efc <follow_path+0x70>
 8002ef4:	4288      	cmp	r0, r1
 8002ef6:	d1fa      	bne.n	8002eee <follow_path+0x62>
 8002ef8:	2006      	movs	r0, #6
 8002efa:	e04a      	b.n	8002f92 <follow_path+0x106>
 8002efc:	f823 0f02 	strh.w	r0, [r3, #2]!
 8002f00:	462f      	mov	r7, r5
 8002f02:	e095      	b.n	8003030 <follow_path+0x1a4>
 8002f04:	f83b 3017 	ldrh.w	r3, [fp, r7, lsl #1]
 8002f08:	2b20      	cmp	r3, #32
 8002f0a:	d002      	beq.n	8002f12 <follow_path+0x86>
 8002f0c:	2b2e      	cmp	r3, #46	@ 0x2e
 8002f0e:	f040 80a6 	bne.w	800305e <follow_path+0x1d2>
 8002f12:	3f01      	subs	r7, #1
 8002f14:	e0a0      	b.n	8003058 <follow_path+0x1cc>
 8002f16:	3101      	adds	r1, #1
 8002f18:	e0ad      	b.n	8003076 <follow_path+0x1ea>
 8002f1a:	459b      	cmp	fp, r3
 8002f1c:	d204      	bcs.n	8002f28 <follow_path+0x9c>
 8002f1e:	42ba      	cmp	r2, r7
 8002f20:	d146      	bne.n	8002fb0 <follow_path+0x124>
 8002f22:	2b0b      	cmp	r3, #11
 8002f24:	d13d      	bne.n	8002fa2 <follow_path+0x116>
 8002f26:	e001      	b.n	8002f2c <follow_path+0xa0>
 8002f28:	2b0b      	cmp	r3, #11
 8002f2a:	d135      	bne.n	8002f98 <follow_path+0x10c>
 8002f2c:	f044 0403 	orr.w	r4, r4, #3
 8002f30:	230b      	movs	r3, #11
 8002f32:	f896 2024 	ldrb.w	r2, [r6, #36]	@ 0x24
 8002f36:	2ae5      	cmp	r2, #229	@ 0xe5
 8002f38:	bf04      	itt	eq
 8002f3a:	2205      	moveq	r2, #5
 8002f3c:	f886 2024 	strbeq.w	r2, [r6, #36]	@ 0x24
 8002f40:	2b08      	cmp	r3, #8
 8002f42:	bf04      	itt	eq
 8002f44:	00ad      	lsleq	r5, r5, #2
 8002f46:	b2ed      	uxtbeq	r5, r5
 8002f48:	f005 030c 	and.w	r3, r5, #12
 8002f4c:	2b0c      	cmp	r3, #12
 8002f4e:	d003      	beq.n	8002f58 <follow_path+0xcc>
 8002f50:	f005 0203 	and.w	r2, r5, #3
 8002f54:	2a03      	cmp	r2, #3
 8002f56:	d101      	bne.n	8002f5c <follow_path+0xd0>
 8002f58:	f044 0402 	orr.w	r4, r4, #2
 8002f5c:	07a1      	lsls	r1, r4, #30
 8002f5e:	d409      	bmi.n	8002f74 <follow_path+0xe8>
 8002f60:	f005 0503 	and.w	r5, r5, #3
 8002f64:	2d01      	cmp	r5, #1
 8002f66:	bf08      	it	eq
 8002f68:	f044 0410 	orreq.w	r4, r4, #16
 8002f6c:	2b04      	cmp	r3, #4
 8002f6e:	bf08      	it	eq
 8002f70:	f044 0408 	orreq.w	r4, r4, #8
 8002f74:	f886 402f 	strb.w	r4, [r6, #47]	@ 0x2f
 8002f78:	4630      	mov	r0, r6
 8002f7a:	f7ff fd93 	bl	8002aa4 <dir_find>
 8002f7e:	f896 302f 	ldrb.w	r3, [r6, #47]	@ 0x2f
 8002f82:	2800      	cmp	r0, #0
 8002f84:	d03a      	beq.n	8002ffc <follow_path+0x170>
 8002f86:	2804      	cmp	r0, #4
 8002f88:	d103      	bne.n	8002f92 <follow_path+0x106>
 8002f8a:	f013 0f04 	tst.w	r3, #4
 8002f8e:	bf08      	it	eq
 8002f90:	2005      	moveq	r0, #5
 8002f92:	b005      	add	sp, #20
 8002f94:	e8bd 8ff0 	ldmia.w	sp!, {r4, r5, r6, r7, r8, r9, sl, fp, pc}
 8002f98:	42ba      	cmp	r2, r7
 8002f9a:	d002      	beq.n	8002fa2 <follow_path+0x116>
 8002f9c:	f044 0403 	orr.w	r4, r4, #3
 8002fa0:	d8c7      	bhi.n	8002f32 <follow_path+0xa6>
 8002fa2:	00ad      	lsls	r5, r5, #2
 8002fa4:	b2ed      	uxtb	r5, r5
 8002fa6:	463a      	mov	r2, r7
 8002fa8:	230b      	movs	r3, #11
 8002faa:	f04f 0b08 	mov.w	fp, #8
 8002fae:	e08c      	b.n	80030ca <follow_path+0x23e>
 8002fb0:	287f      	cmp	r0, #127	@ 0x7f
 8002fb2:	d90e      	bls.n	8002fd2 <follow_path+0x146>
 8002fb4:	2100      	movs	r1, #0
 8002fb6:	e9cd 2302 	strd	r2, r3, [sp, #8]
 8002fba:	f000 fc2b 	bl	8003814 <ff_convert>
 8002fbe:	f044 0402 	orr.w	r4, r4, #2
 8002fc2:	e9dd 2302 	ldrd	r2, r3, [sp, #8]
 8002fc6:	b160      	cbz	r0, 8002fe2 <follow_path+0x156>
 8002fc8:	4949      	ldr	r1, [pc, #292]	@ (80030f0 <follow_path+0x264>)
 8002fca:	4401      	add	r1, r0
 8002fcc:	f811 0c80 	ldrb.w	r0, [r1, #-128]
 8002fd0:	b138      	cbz	r0, 8002fe2 <follow_path+0x156>
 8002fd2:	f8df c120 	ldr.w	ip, [pc, #288]	@ 80030f4 <follow_path+0x268>
 8002fd6:	f81c 1b01 	ldrb.w	r1, [ip], #1
 8002fda:	2900      	cmp	r1, #0
 8002fdc:	d079      	beq.n	80030d2 <follow_path+0x246>
 8002fde:	4281      	cmp	r1, r0
 8002fe0:	d1f9      	bne.n	8002fd6 <follow_path+0x14a>
 8002fe2:	f044 0403 	orr.w	r4, r4, #3
 8002fe6:	205f      	movs	r0, #95	@ 0x5f
 8002fe8:	eb06 010b 	add.w	r1, r6, fp
 8002fec:	f10b 0b01 	add.w	fp, fp, #1
 8002ff0:	f881 0024 	strb.w	r0, [r1, #36]	@ 0x24
 8002ff4:	e069      	b.n	80030ca <follow_path+0x23e>
 8002ff6:	f045 0502 	orr.w	r5, r5, #2
 8002ffa:	e7f5      	b.n	8002fe8 <follow_path+0x15c>
 8002ffc:	075a      	lsls	r2, r3, #29
 8002ffe:	d4c8      	bmi.n	8002f92 <follow_path+0x106>
 8003000:	79b3      	ldrb	r3, [r6, #6]
 8003002:	06db      	lsls	r3, r3, #27
 8003004:	d563      	bpl.n	80030ce <follow_path+0x242>
 8003006:	9b01      	ldr	r3, [sp, #4]
 8003008:	f103 0134 	add.w	r1, r3, #52	@ 0x34
 800300c:	6973      	ldr	r3, [r6, #20]
 800300e:	f3c3 0308 	ubfx	r3, r3, #0, #9
 8003012:	4419      	add	r1, r3
 8003014:	9b01      	ldr	r3, [sp, #4]
 8003016:	7818      	ldrb	r0, [r3, #0]
 8003018:	f7ff fba1 	bl	800275e <ld_clust.isra.0>
 800301c:	60b0      	str	r0, [r6, #8]
 800301e:	6833      	ldr	r3, [r6, #0]
 8003020:	f8d3 900c 	ldr.w	r9, [r3, #12]
 8003024:	f1a9 0b02 	sub.w	fp, r9, #2
 8003028:	f108 32ff 	add.w	r2, r8, #4294967295
 800302c:	465b      	mov	r3, fp
 800302e:	2700      	movs	r7, #0
 8003030:	f812 4f01 	ldrb.w	r4, [r2, #1]!
 8003034:	2c1f      	cmp	r4, #31
 8003036:	f107 0501 	add.w	r5, r7, #1
 800303a:	d90c      	bls.n	8003056 <follow_path+0x1ca>
 800303c:	2c2f      	cmp	r4, #47	@ 0x2f
 800303e:	d002      	beq.n	8003046 <follow_path+0x1ba>
 8003040:	2c5c      	cmp	r4, #92	@ 0x5c
 8003042:	f47f af45 	bne.w	8002ed0 <follow_path+0x44>
 8003046:	f818 3005 	ldrb.w	r3, [r8, r5]
 800304a:	2b2f      	cmp	r3, #47	@ 0x2f
 800304c:	f43f af3e 	beq.w	8002ecc <follow_path+0x40>
 8003050:	2b5c      	cmp	r3, #92	@ 0x5c
 8003052:	f43f af3b 	beq.w	8002ecc <follow_path+0x40>
 8003056:	44a8      	add	r8, r5
 8003058:	2f00      	cmp	r7, #0
 800305a:	f47f af53 	bne.w	8002f04 <follow_path+0x78>
 800305e:	f829 a017 	strh.w	sl, [r9, r7, lsl #1]
 8003062:	2f00      	cmp	r7, #0
 8003064:	f43f af48 	beq.w	8002ef8 <follow_path+0x6c>
 8003068:	2120      	movs	r1, #32
 800306a:	220b      	movs	r2, #11
 800306c:	f106 0024 	add.w	r0, r6, #36	@ 0x24
 8003070:	f7fe fffa 	bl	8002068 <mem_set>
 8003074:	2100      	movs	r1, #0
 8003076:	f839 3011 	ldrh.w	r3, [r9, r1, lsl #1]
 800307a:	2b20      	cmp	r3, #32
 800307c:	f43f af4b 	beq.w	8002f16 <follow_path+0x8a>
 8003080:	2b2e      	cmp	r3, #46	@ 0x2e
 8003082:	f43f af48 	beq.w	8002f16 <follow_path+0x8a>
 8003086:	2c1f      	cmp	r4, #31
 8003088:	bf8c      	ite	hi
 800308a:	2400      	movhi	r4, #0
 800308c:	2401      	movls	r4, #1
 800308e:	00a4      	lsls	r4, r4, #2
 8003090:	b109      	cbz	r1, 8003096 <follow_path+0x20a>
 8003092:	f044 0403 	orr.w	r4, r4, #3
 8003096:	f83b 3017 	ldrh.w	r3, [fp, r7, lsl #1]
 800309a:	2b2e      	cmp	r3, #46	@ 0x2e
 800309c:	d001      	beq.n	80030a2 <follow_path+0x216>
 800309e:	3f01      	subs	r7, #1
 80030a0:	d1f9      	bne.n	8003096 <follow_path+0x20a>
 80030a2:	f04f 0b00 	mov.w	fp, #0
 80030a6:	2308      	movs	r3, #8
 80030a8:	465d      	mov	r5, fp
 80030aa:	f839 0011 	ldrh.w	r0, [r9, r1, lsl #1]
 80030ae:	1c4a      	adds	r2, r1, #1
 80030b0:	2800      	cmp	r0, #0
 80030b2:	f43f af3e 	beq.w	8002f32 <follow_path+0xa6>
 80030b6:	2820      	cmp	r0, #32
 80030b8:	d005      	beq.n	80030c6 <follow_path+0x23a>
 80030ba:	282e      	cmp	r0, #46	@ 0x2e
 80030bc:	f47f af2d 	bne.w	8002f1a <follow_path+0x8e>
 80030c0:	42ba      	cmp	r2, r7
 80030c2:	f43f af2a 	beq.w	8002f1a <follow_path+0x8e>
 80030c6:	f044 0403 	orr.w	r4, r4, #3
 80030ca:	4611      	mov	r1, r2
 80030cc:	e7ed      	b.n	80030aa <follow_path+0x21e>
 80030ce:	2005      	movs	r0, #5
 80030d0:	e75f      	b.n	8002f92 <follow_path+0x106>
 80030d2:	f1a0 0141 	sub.w	r1, r0, #65	@ 0x41
 80030d6:	2919      	cmp	r1, #25
 80030d8:	d98d      	bls.n	8002ff6 <follow_path+0x16a>
 80030da:	f1a0 0161 	sub.w	r1, r0, #97	@ 0x61
 80030de:	2919      	cmp	r1, #25
 80030e0:	bf9e      	ittt	ls
 80030e2:	3820      	subls	r0, #32
 80030e4:	f045 0501 	orrls.w	r5, r5, #1
 80030e8:	b280      	uxthls	r0, r0
 80030ea:	e77d      	b.n	8002fe8 <follow_path+0x15c>
 80030ec:	08003979 	.word	0x08003979
 80030f0:	08003996 	.word	0x08003996
 80030f4:	08003982 	.word	0x08003982

080030f8 <f_mount>:
 80030f8:	b57f      	push	{r0, r1, r2, r3, r4, r5, r6, lr}
 80030fa:	e9cd 1000 	strd	r1, r0, [sp]
 80030fe:	a803      	add	r0, sp, #12
 8003100:	4615      	mov	r5, r2
 8003102:	9103      	str	r1, [sp, #12]
 8003104:	f7ff f87b 	bl	80021fe <get_ldnumber>
 8003108:	1e04      	subs	r4, r0, #0
 800310a:	db19      	blt.n	8003140 <f_mount+0x48>
 800310c:	4e0d      	ldr	r6, [pc, #52]	@ (8003144 <f_mount+0x4c>)
 800310e:	f856 0024 	ldr.w	r0, [r6, r4, lsl #2]
 8003112:	b118      	cbz	r0, 800311c <f_mount+0x24>
 8003114:	f7ff f838 	bl	8002188 <clear_lock>
 8003118:	2300      	movs	r3, #0
 800311a:	7003      	strb	r3, [r0, #0]
 800311c:	9b01      	ldr	r3, [sp, #4]
 800311e:	b923      	cbnz	r3, 800312a <f_mount+0x32>
 8003120:	f846 3024 	str.w	r3, [r6, r4, lsl #2]
 8003124:	2000      	movs	r0, #0
 8003126:	b004      	add	sp, #16
 8003128:	bd70      	pop	{r4, r5, r6, pc}
 800312a:	2200      	movs	r2, #0
 800312c:	2d01      	cmp	r5, #1
 800312e:	f846 3024 	str.w	r3, [r6, r4, lsl #2]
 8003132:	701a      	strb	r2, [r3, #0]
 8003134:	d1f6      	bne.n	8003124 <f_mount+0x2c>
 8003136:	a901      	add	r1, sp, #4
 8003138:	4668      	mov	r0, sp
 800313a:	f7ff f921 	bl	8002380 <find_volume>
 800313e:	e7f2      	b.n	8003126 <f_mount+0x2e>
 8003140:	200b      	movs	r0, #11
 8003142:	e7f0      	b.n	8003126 <f_mount+0x2e>
 8003144:	200005ec 	.word	0x200005ec

08003148 <f_open>:
 8003148:	e92d 43f0 	stmdb	sp!, {r4, r5, r6, r7, r8, r9, lr}
 800314c:	b091      	sub	sp, #68	@ 0x44
 800314e:	4690      	mov	r8, r2
 8003150:	9101      	str	r1, [sp, #4]
 8003152:	4604      	mov	r4, r0
 8003154:	2800      	cmp	r0, #0
 8003156:	f000 80f3 	beq.w	8003340 <f_open+0x1f8>
 800315a:	f002 063f 	and.w	r6, r2, #63	@ 0x3f
 800315e:	4632      	mov	r2, r6
 8003160:	a902      	add	r1, sp, #8
 8003162:	a801      	add	r0, sp, #4
 8003164:	f7ff f90c 	bl	8002380 <find_volume>
 8003168:	4607      	mov	r7, r0
 800316a:	2800      	cmp	r0, #0
 800316c:	d170      	bne.n	8003250 <f_open+0x108>
 800316e:	9d02      	ldr	r5, [sp, #8]
 8003170:	9901      	ldr	r1, [sp, #4]
 8003172:	9503      	str	r5, [sp, #12]
 8003174:	a803      	add	r0, sp, #12
 8003176:	f7ff fe89 	bl	8002e8c <follow_path>
 800317a:	b958      	cbnz	r0, 8003194 <f_open+0x4c>
 800317c:	f99d 303b 	ldrsb.w	r3, [sp, #59]	@ 0x3b
 8003180:	2b00      	cmp	r3, #0
 8003182:	db6c      	blt.n	800325e <f_open+0x116>
 8003184:	f018 0f3e 	tst.w	r8, #62	@ 0x3e
 8003188:	bf14      	ite	ne
 800318a:	2101      	movne	r1, #1
 800318c:	2100      	moveq	r1, #0
 800318e:	a803      	add	r0, sp, #12
 8003190:	f7fe ff70 	bl	8002074 <chk_lock>
 8003194:	f018 0f1c 	tst.w	r8, #28
 8003198:	d072      	beq.n	8003280 <f_open+0x138>
 800319a:	2800      	cmp	r0, #0
 800319c:	d066      	beq.n	800326c <f_open+0x124>
 800319e:	2804      	cmp	r0, #4
 80031a0:	d156      	bne.n	8003250 <f_open+0x108>
 80031a2:	4968      	ldr	r1, [pc, #416]	@ (8003344 <f_open+0x1fc>)
 80031a4:	2300      	movs	r3, #0
 80031a6:	011a      	lsls	r2, r3, #4
 80031a8:	588a      	ldr	r2, [r1, r2]
 80031aa:	2a00      	cmp	r2, #0
 80031ac:	d159      	bne.n	8003262 <f_open+0x11a>
 80031ae:	a803      	add	r0, sp, #12
 80031b0:	f7ff fd26 	bl	8002c00 <dir_register>
 80031b4:	2800      	cmp	r0, #0
 80031b6:	d14b      	bne.n	8003250 <f_open+0x108>
 80031b8:	f046 0608 	orr.w	r6, r6, #8
 80031bc:	0730      	lsls	r0, r6, #28
 80031be:	f8dd 802c 	ldr.w	r8, [sp, #44]	@ 0x2c
 80031c2:	d535      	bpl.n	8003230 <f_open+0xe8>
 80031c4:	f7fe fbe4 	bl	8001990 <get_fattime>
 80031c8:	4602      	mov	r2, r0
 80031ca:	4601      	mov	r1, r0
 80031cc:	f108 000e 	add.w	r0, r8, #14
 80031d0:	f7fe ff42 	bl	8002058 <st_dword>
 80031d4:	4611      	mov	r1, r2
 80031d6:	f108 0016 	add.w	r0, r8, #22
 80031da:	f7fe ff3d 	bl	8002058 <st_dword>
 80031de:	2320      	movs	r3, #32
 80031e0:	f888 300b 	strb.w	r3, [r8, #11]
 80031e4:	4641      	mov	r1, r8
 80031e6:	7828      	ldrb	r0, [r5, #0]
 80031e8:	f7ff fab9 	bl	800275e <ld_clust.isra.0>
 80031ec:	2200      	movs	r2, #0
 80031ee:	4680      	mov	r8, r0
 80031f0:	4628      	mov	r0, r5
 80031f2:	f7ff f864 	bl	80022be <st_clust>
 80031f6:	2200      	movs	r2, #0
 80031f8:	2301      	movs	r3, #1
 80031fa:	770a      	strb	r2, [r1, #28]
 80031fc:	774a      	strb	r2, [r1, #29]
 80031fe:	778a      	strb	r2, [r1, #30]
 8003200:	77ca      	strb	r2, [r1, #31]
 8003202:	70eb      	strb	r3, [r5, #3]
 8003204:	f1b8 0f00 	cmp.w	r8, #0
 8003208:	d00e      	beq.n	8003228 <f_open+0xe0>
 800320a:	4641      	mov	r1, r8
 800320c:	a803      	add	r0, sp, #12
 800320e:	f8d5 9030 	ldr.w	r9, [r5, #48]	@ 0x30
 8003212:	f7ff fb02 	bl	800281a <remove_chain>
 8003216:	b9d8      	cbnz	r0, 8003250 <f_open+0x108>
 8003218:	4649      	mov	r1, r9
 800321a:	4628      	mov	r0, r5
 800321c:	f7ff f85b 	bl	80022d6 <move_window>
 8003220:	f108 33ff 	add.w	r3, r8, #4294967295
 8003224:	612b      	str	r3, [r5, #16]
 8003226:	b998      	cbnz	r0, 8003250 <f_open+0x108>
 8003228:	0730      	lsls	r0, r6, #28
 800322a:	bf48      	it	mi
 800322c:	f046 0640 	orrmi.w	r6, r6, #64	@ 0x40
 8003230:	6b2b      	ldr	r3, [r5, #48]	@ 0x30
 8003232:	f8dd 802c 	ldr.w	r8, [sp, #44]	@ 0x2c
 8003236:	6263      	str	r3, [r4, #36]	@ 0x24
 8003238:	2e01      	cmp	r6, #1
 800323a:	f8c4 8028 	str.w	r8, [r4, #40]	@ 0x28
 800323e:	bf94      	ite	ls
 8003240:	2100      	movls	r1, #0
 8003242:	2101      	movhi	r1, #1
 8003244:	a803      	add	r0, sp, #12
 8003246:	f7fe ff43 	bl	80020d0 <inc_lock>
 800324a:	6120      	str	r0, [r4, #16]
 800324c:	bb28      	cbnz	r0, 800329a <f_open+0x152>
 800324e:	2002      	movs	r0, #2
 8003250:	2300      	movs	r3, #0
 8003252:	6023      	str	r3, [r4, #0]
 8003254:	4607      	mov	r7, r0
 8003256:	4638      	mov	r0, r7
 8003258:	b011      	add	sp, #68	@ 0x44
 800325a:	e8bd 83f0 	ldmia.w	sp!, {r4, r5, r6, r7, r8, r9, pc}
 800325e:	2006      	movs	r0, #6
 8003260:	e798      	b.n	8003194 <f_open+0x4c>
 8003262:	3301      	adds	r3, #1
 8003264:	2b05      	cmp	r3, #5
 8003266:	d19e      	bne.n	80031a6 <f_open+0x5e>
 8003268:	2012      	movs	r0, #18
 800326a:	e7f1      	b.n	8003250 <f_open+0x108>
 800326c:	f89d 3012 	ldrb.w	r3, [sp, #18]
 8003270:	f013 0f11 	tst.w	r3, #17
 8003274:	d10f      	bne.n	8003296 <f_open+0x14e>
 8003276:	f018 0f04 	tst.w	r8, #4
 800327a:	d09f      	beq.n	80031bc <f_open+0x74>
 800327c:	2008      	movs	r0, #8
 800327e:	e7e7      	b.n	8003250 <f_open+0x108>
 8003280:	2800      	cmp	r0, #0
 8003282:	d1e5      	bne.n	8003250 <f_open+0x108>
 8003284:	f89d 3012 	ldrb.w	r3, [sp, #18]
 8003288:	06da      	lsls	r2, r3, #27
 800328a:	d457      	bmi.n	800333c <f_open+0x1f4>
 800328c:	f018 0f02 	tst.w	r8, #2
 8003290:	d0ca      	beq.n	8003228 <f_open+0xe0>
 8003292:	07db      	lsls	r3, r3, #31
 8003294:	d5c8      	bpl.n	8003228 <f_open+0xe0>
 8003296:	2007      	movs	r0, #7
 8003298:	e7da      	b.n	8003250 <f_open+0x108>
 800329a:	7828      	ldrb	r0, [r5, #0]
 800329c:	4641      	mov	r1, r8
 800329e:	f7ff fa5e 	bl	800275e <ld_clust.isra.0>
 80032a2:	60a0      	str	r0, [r4, #8]
 80032a4:	f108 001c 	add.w	r0, r8, #28
 80032a8:	f7fe fed4 	bl	8002054 <ld_dword>
 80032ac:	2300      	movs	r3, #0
 80032ae:	88ea      	ldrh	r2, [r5, #6]
 80032b0:	60e0      	str	r0, [r4, #12]
 80032b2:	f104 0830 	add.w	r8, r4, #48	@ 0x30
 80032b6:	80a2      	strh	r2, [r4, #4]
 80032b8:	62e3      	str	r3, [r4, #44]	@ 0x2c
 80032ba:	f44f 7200 	mov.w	r2, #512	@ 0x200
 80032be:	6025      	str	r5, [r4, #0]
 80032c0:	7526      	strb	r6, [r4, #20]
 80032c2:	7563      	strb	r3, [r4, #21]
 80032c4:	6223      	str	r3, [r4, #32]
 80032c6:	61a3      	str	r3, [r4, #24]
 80032c8:	4619      	mov	r1, r3
 80032ca:	4640      	mov	r0, r8
 80032cc:	f7fe fecc 	bl	8002068 <mem_set>
 80032d0:	06b2      	lsls	r2, r6, #26
 80032d2:	d5c0      	bpl.n	8003256 <f_open+0x10e>
 80032d4:	68e6      	ldr	r6, [r4, #12]
 80032d6:	2e00      	cmp	r6, #0
 80032d8:	d0bd      	beq.n	8003256 <f_open+0x10e>
 80032da:	896a      	ldrh	r2, [r5, #10]
 80032dc:	68a1      	ldr	r1, [r4, #8]
 80032de:	61a6      	str	r6, [r4, #24]
 80032e0:	ebb6 2f42 	cmp.w	r6, r2, lsl #9
 80032e4:	ea4f 2942 	mov.w	r9, r2, lsl #9
 80032e8:	d90b      	bls.n	8003302 <f_open+0x1ba>
 80032ea:	6820      	ldr	r0, [r4, #0]
 80032ec:	f7ff fa3f 	bl	800276e <get_fat.isra.0>
 80032f0:	2801      	cmp	r0, #1
 80032f2:	4601      	mov	r1, r0
 80032f4:	eba6 0609 	sub.w	r6, r6, r9
 80032f8:	d91c      	bls.n	8003334 <f_open+0x1ec>
 80032fa:	1c43      	adds	r3, r0, #1
 80032fc:	d01c      	beq.n	8003338 <f_open+0x1f0>
 80032fe:	454e      	cmp	r6, r9
 8003300:	d8f3      	bhi.n	80032ea <f_open+0x1a2>
 8003302:	2000      	movs	r0, #0
 8003304:	61e1      	str	r1, [r4, #28]
 8003306:	2800      	cmp	r0, #0
 8003308:	d1a2      	bne.n	8003250 <f_open+0x108>
 800330a:	f3c6 0308 	ubfx	r3, r6, #0, #9
 800330e:	2b00      	cmp	r3, #0
 8003310:	d0a1      	beq.n	8003256 <f_open+0x10e>
 8003312:	4628      	mov	r0, r5
 8003314:	f7fe ff48 	bl	80021a8 <clust2sect>
 8003318:	2800      	cmp	r0, #0
 800331a:	d098      	beq.n	800324e <f_open+0x106>
 800331c:	eb00 2256 	add.w	r2, r0, r6, lsr #9
 8003320:	6222      	str	r2, [r4, #32]
 8003322:	7868      	ldrb	r0, [r5, #1]
 8003324:	2301      	movs	r3, #1
 8003326:	4641      	mov	r1, r8
 8003328:	f7fe fe6a 	bl	8002000 <disk_read>
 800332c:	2800      	cmp	r0, #0
 800332e:	d092      	beq.n	8003256 <f_open+0x10e>
 8003330:	2001      	movs	r0, #1
 8003332:	e78d      	b.n	8003250 <f_open+0x108>
 8003334:	2002      	movs	r0, #2
 8003336:	e7e5      	b.n	8003304 <f_open+0x1bc>
 8003338:	2001      	movs	r0, #1
 800333a:	e7e3      	b.n	8003304 <f_open+0x1bc>
 800333c:	2004      	movs	r0, #4
 800333e:	e787      	b.n	8003250 <f_open+0x108>
 8003340:	2709      	movs	r7, #9
 8003342:	e788      	b.n	8003256 <f_open+0x10e>
 8003344:	20000598 	.word	0x20000598

08003348 <f_write>:
 8003348:	e92d 4ff0 	stmdb	sp!, {r4, r5, r6, r7, r8, r9, sl, fp, lr}
 800334c:	469a      	mov	sl, r3
 800334e:	b085      	sub	sp, #20
 8003350:	2300      	movs	r3, #0
 8003352:	4688      	mov	r8, r1
 8003354:	f8ca 3000 	str.w	r3, [sl]
 8003358:	a903      	add	r1, sp, #12
 800335a:	4604      	mov	r4, r0
 800335c:	4616      	mov	r6, r2
 800335e:	f7fe ff66 	bl	800222e <validate>
 8003362:	4605      	mov	r5, r0
 8003364:	bb68      	cbnz	r0, 80033c2 <f_write+0x7a>
 8003366:	7d65      	ldrb	r5, [r4, #21]
 8003368:	bb5d      	cbnz	r5, 80033c2 <f_write+0x7a>
 800336a:	7d23      	ldrb	r3, [r4, #20]
 800336c:	079a      	lsls	r2, r3, #30
 800336e:	f140 80b4 	bpl.w	80034da <f_write+0x192>
 8003372:	69a3      	ldr	r3, [r4, #24]
 8003374:	42f3      	cmn	r3, r6
 8003376:	bf28      	it	cs
 8003378:	43de      	mvncs	r6, r3
 800337a:	f104 0330 	add.w	r3, r4, #48	@ 0x30
 800337e:	9300      	str	r3, [sp, #0]
 8003380:	b1de      	cbz	r6, 80033ba <f_write+0x72>
 8003382:	69a1      	ldr	r1, [r4, #24]
 8003384:	f3c1 0308 	ubfx	r3, r1, #0, #9
 8003388:	2b00      	cmp	r3, #0
 800338a:	f040 8093 	bne.w	80034b4 <f_write+0x16c>
 800338e:	f8dd 900c 	ldr.w	r9, [sp, #12]
 8003392:	f8b9 700a 	ldrh.w	r7, [r9, #10]
 8003396:	3f01      	subs	r7, #1
 8003398:	ea17 2751 	ands.w	r7, r7, r1, lsr #9
 800339c:	d124      	bne.n	80033e8 <f_write+0xa0>
 800339e:	b931      	cbnz	r1, 80033ae <f_write+0x66>
 80033a0:	68a0      	ldr	r0, [r4, #8]
 80033a2:	b9a0      	cbnz	r0, 80033ce <f_write+0x86>
 80033a4:	4601      	mov	r1, r0
 80033a6:	4620      	mov	r0, r4
 80033a8:	f7ff fa6e 	bl	8002888 <create_chain>
 80033ac:	e004      	b.n	80033b8 <f_write+0x70>
 80033ae:	6ae3      	ldr	r3, [r4, #44]	@ 0x2c
 80033b0:	b15b      	cbz	r3, 80033ca <f_write+0x82>
 80033b2:	4620      	mov	r0, r4
 80033b4:	f7fe ff03 	bl	80021be <clmt_clust>
 80033b8:	b948      	cbnz	r0, 80033ce <f_write+0x86>
 80033ba:	7d23      	ldrb	r3, [r4, #20]
 80033bc:	f043 0340 	orr.w	r3, r3, #64	@ 0x40
 80033c0:	7523      	strb	r3, [r4, #20]
 80033c2:	4628      	mov	r0, r5
 80033c4:	b005      	add	sp, #20
 80033c6:	e8bd 8ff0 	ldmia.w	sp!, {r4, r5, r6, r7, r8, r9, sl, fp, pc}
 80033ca:	69e1      	ldr	r1, [r4, #28]
 80033cc:	e7eb      	b.n	80033a6 <f_write+0x5e>
 80033ce:	2801      	cmp	r0, #1
 80033d0:	d102      	bne.n	80033d8 <f_write+0x90>
 80033d2:	2502      	movs	r5, #2
 80033d4:	7565      	strb	r5, [r4, #21]
 80033d6:	e7f4      	b.n	80033c2 <f_write+0x7a>
 80033d8:	1c43      	adds	r3, r0, #1
 80033da:	d101      	bne.n	80033e0 <f_write+0x98>
 80033dc:	2501      	movs	r5, #1
 80033de:	e7f9      	b.n	80033d4 <f_write+0x8c>
 80033e0:	68a3      	ldr	r3, [r4, #8]
 80033e2:	61e0      	str	r0, [r4, #28]
 80033e4:	b903      	cbnz	r3, 80033e8 <f_write+0xa0>
 80033e6:	60a0      	str	r0, [r4, #8]
 80033e8:	f994 3014 	ldrsb.w	r3, [r4, #20]
 80033ec:	2b00      	cmp	r3, #0
 80033ee:	da0d      	bge.n	800340c <f_write+0xc4>
 80033f0:	6a22      	ldr	r2, [r4, #32]
 80033f2:	f899 0001 	ldrb.w	r0, [r9, #1]
 80033f6:	2301      	movs	r3, #1
 80033f8:	f104 0130 	add.w	r1, r4, #48	@ 0x30
 80033fc:	f7fe fe0e 	bl	800201c <disk_write>
 8003400:	2800      	cmp	r0, #0
 8003402:	d1eb      	bne.n	80033dc <f_write+0x94>
 8003404:	7d23      	ldrb	r3, [r4, #20]
 8003406:	f003 037f 	and.w	r3, r3, #127	@ 0x7f
 800340a:	7523      	strb	r3, [r4, #20]
 800340c:	69e1      	ldr	r1, [r4, #28]
 800340e:	4648      	mov	r0, r9
 8003410:	f7fe feca 	bl	80021a8 <clust2sect>
 8003414:	2800      	cmp	r0, #0
 8003416:	d0dc      	beq.n	80033d2 <f_write+0x8a>
 8003418:	f5b6 7f00 	cmp.w	r6, #512	@ 0x200
 800341c:	eb07 0b00 	add.w	fp, r7, r0
 8003420:	d335      	bcc.n	800348e <f_write+0x146>
 8003422:	f8b9 100a 	ldrh.w	r1, [r9, #10]
 8003426:	eb07 2056 	add.w	r0, r7, r6, lsr #9
 800342a:	4288      	cmp	r0, r1
 800342c:	ea4f 2356 	mov.w	r3, r6, lsr #9
 8003430:	f899 0001 	ldrb.w	r0, [r9, #1]
 8003434:	bf88      	it	hi
 8003436:	1bcb      	subhi	r3, r1, r7
 8003438:	465a      	mov	r2, fp
 800343a:	4641      	mov	r1, r8
 800343c:	9301      	str	r3, [sp, #4]
 800343e:	f7fe fded 	bl	800201c <disk_write>
 8003442:	2800      	cmp	r0, #0
 8003444:	d1ca      	bne.n	80033dc <f_write+0x94>
 8003446:	6a21      	ldr	r1, [r4, #32]
 8003448:	9b01      	ldr	r3, [sp, #4]
 800344a:	eba1 010b 	sub.w	r1, r1, fp
 800344e:	4299      	cmp	r1, r3
 8003450:	d20c      	bcs.n	800346c <f_write+0x124>
 8003452:	f44f 7200 	mov.w	r2, #512	@ 0x200
 8003456:	eb08 2141 	add.w	r1, r8, r1, lsl #9
 800345a:	f104 0030 	add.w	r0, r4, #48	@ 0x30
 800345e:	f7fe ff25 	bl	80022ac <mem_cpy.part.0>
 8003462:	7d22      	ldrb	r2, [r4, #20]
 8003464:	9b01      	ldr	r3, [sp, #4]
 8003466:	f002 027f 	and.w	r2, r2, #127	@ 0x7f
 800346a:	7522      	strb	r2, [r4, #20]
 800346c:	025f      	lsls	r7, r3, #9
 800346e:	69a3      	ldr	r3, [r4, #24]
 8003470:	68e2      	ldr	r2, [r4, #12]
 8003472:	443b      	add	r3, r7
 8003474:	61a3      	str	r3, [r4, #24]
 8003476:	429a      	cmp	r2, r3
 8003478:	bf2c      	ite	cs
 800347a:	60e2      	strcs	r2, [r4, #12]
 800347c:	60e3      	strcc	r3, [r4, #12]
 800347e:	f8da 3000 	ldr.w	r3, [sl]
 8003482:	443b      	add	r3, r7
 8003484:	44b8      	add	r8, r7
 8003486:	f8ca 3000 	str.w	r3, [sl]
 800348a:	1bf6      	subs	r6, r6, r7
 800348c:	e778      	b.n	8003380 <f_write+0x38>
 800348e:	6a21      	ldr	r1, [r4, #32]
 8003490:	69a3      	ldr	r3, [r4, #24]
 8003492:	4559      	cmp	r1, fp
 8003494:	d00c      	beq.n	80034b0 <f_write+0x168>
 8003496:	68e1      	ldr	r1, [r4, #12]
 8003498:	4299      	cmp	r1, r3
 800349a:	d909      	bls.n	80034b0 <f_write+0x168>
 800349c:	f899 0001 	ldrb.w	r0, [r9, #1]
 80034a0:	2301      	movs	r3, #1
 80034a2:	465a      	mov	r2, fp
 80034a4:	f104 0130 	add.w	r1, r4, #48	@ 0x30
 80034a8:	f7fe fdaa 	bl	8002000 <disk_read>
 80034ac:	2800      	cmp	r0, #0
 80034ae:	d195      	bne.n	80033dc <f_write+0x94>
 80034b0:	f8c4 b020 	str.w	fp, [r4, #32]
 80034b4:	69a0      	ldr	r0, [r4, #24]
 80034b6:	9b00      	ldr	r3, [sp, #0]
 80034b8:	f3c0 0008 	ubfx	r0, r0, #0, #9
 80034bc:	f5c0 7700 	rsb	r7, r0, #512	@ 0x200
 80034c0:	42b7      	cmp	r7, r6
 80034c2:	bf28      	it	cs
 80034c4:	4637      	movcs	r7, r6
 80034c6:	4418      	add	r0, r3
 80034c8:	463a      	mov	r2, r7
 80034ca:	4641      	mov	r1, r8
 80034cc:	f7fe feee 	bl	80022ac <mem_cpy.part.0>
 80034d0:	7d23      	ldrb	r3, [r4, #20]
 80034d2:	f063 037f 	orn	r3, r3, #127	@ 0x7f
 80034d6:	7523      	strb	r3, [r4, #20]
 80034d8:	e7c9      	b.n	800346e <f_write+0x126>
 80034da:	2507      	movs	r5, #7
 80034dc:	e771      	b.n	80033c2 <f_write+0x7a>

080034de <f_sync>:
 80034de:	e92d 41f3 	stmdb	sp!, {r0, r1, r4, r5, r6, r7, r8, lr}
 80034e2:	a901      	add	r1, sp, #4
 80034e4:	4605      	mov	r5, r0
 80034e6:	f7fe fea2 	bl	800222e <validate>
 80034ea:	4604      	mov	r4, r0
 80034ec:	2800      	cmp	r0, #0
 80034ee:	d13b      	bne.n	8003568 <f_sync+0x8a>
 80034f0:	7d2b      	ldrb	r3, [r5, #20]
 80034f2:	f013 0440 	ands.w	r4, r3, #64	@ 0x40
 80034f6:	d037      	beq.n	8003568 <f_sync+0x8a>
 80034f8:	061b      	lsls	r3, r3, #24
 80034fa:	9f01      	ldr	r7, [sp, #4]
 80034fc:	d50b      	bpl.n	8003516 <f_sync+0x38>
 80034fe:	6a2a      	ldr	r2, [r5, #32]
 8003500:	7878      	ldrb	r0, [r7, #1]
 8003502:	2301      	movs	r3, #1
 8003504:	f105 0130 	add.w	r1, r5, #48	@ 0x30
 8003508:	f7fe fd88 	bl	800201c <disk_write>
 800350c:	bb80      	cbnz	r0, 8003570 <f_sync+0x92>
 800350e:	7d2b      	ldrb	r3, [r5, #20]
 8003510:	f003 037f 	and.w	r3, r3, #127	@ 0x7f
 8003514:	752b      	strb	r3, [r5, #20]
 8003516:	f7fe fa3b 	bl	8001990 <get_fattime>
 800351a:	6a69      	ldr	r1, [r5, #36]	@ 0x24
 800351c:	4680      	mov	r8, r0
 800351e:	4638      	mov	r0, r7
 8003520:	f7fe fed9 	bl	80022d6 <move_window>
 8003524:	4604      	mov	r4, r0
 8003526:	b9f8      	cbnz	r0, 8003568 <f_sync+0x8a>
 8003528:	6aae      	ldr	r6, [r5, #40]	@ 0x28
 800352a:	7af3      	ldrb	r3, [r6, #11]
 800352c:	f043 0320 	orr.w	r3, r3, #32
 8003530:	72f3      	strb	r3, [r6, #11]
 8003532:	68aa      	ldr	r2, [r5, #8]
 8003534:	6828      	ldr	r0, [r5, #0]
 8003536:	4631      	mov	r1, r6
 8003538:	f7fe fec1 	bl	80022be <st_clust>
 800353c:	68e9      	ldr	r1, [r5, #12]
 800353e:	f106 001c 	add.w	r0, r6, #28
 8003542:	f7fe fd89 	bl	8002058 <st_dword>
 8003546:	4641      	mov	r1, r8
 8003548:	f106 0016 	add.w	r0, r6, #22
 800354c:	f7fe fd84 	bl	8002058 <st_dword>
 8003550:	2301      	movs	r3, #1
 8003552:	74b4      	strb	r4, [r6, #18]
 8003554:	74f4      	strb	r4, [r6, #19]
 8003556:	4638      	mov	r0, r7
 8003558:	70fb      	strb	r3, [r7, #3]
 800355a:	f7ff f8b5 	bl	80026c8 <sync_fs>
 800355e:	7d2b      	ldrb	r3, [r5, #20]
 8003560:	f023 0340 	bic.w	r3, r3, #64	@ 0x40
 8003564:	4604      	mov	r4, r0
 8003566:	752b      	strb	r3, [r5, #20]
 8003568:	4620      	mov	r0, r4
 800356a:	b002      	add	sp, #8
 800356c:	e8bd 81f0 	ldmia.w	sp!, {r4, r5, r6, r7, r8, pc}
 8003570:	2401      	movs	r4, #1
 8003572:	e7f9      	b.n	8003568 <f_sync+0x8a>

08003574 <f_close>:
 8003574:	b513      	push	{r0, r1, r4, lr}
 8003576:	4604      	mov	r4, r0
 8003578:	f7ff ffb1 	bl	80034de <f_sync>
 800357c:	b948      	cbnz	r0, 8003592 <f_close+0x1e>
 800357e:	a901      	add	r1, sp, #4
 8003580:	4620      	mov	r0, r4
 8003582:	f7fe fe54 	bl	800222e <validate>
 8003586:	b920      	cbnz	r0, 8003592 <f_close+0x1e>
 8003588:	6920      	ldr	r0, [r4, #16]
 800358a:	f7fe fddf 	bl	800214c <dec_lock>
 800358e:	b900      	cbnz	r0, 8003592 <f_close+0x1e>
 8003590:	6020      	str	r0, [r4, #0]
 8003592:	b002      	add	sp, #8
 8003594:	bd10      	pop	{r4, pc}

08003596 <f_lseek>:
 8003596:	e92d 4ff7 	stmdb	sp!, {r0, r1, r2, r4, r5, r6, r7, r8, r9, sl, fp, lr}
 800359a:	460d      	mov	r5, r1
 800359c:	a901      	add	r1, sp, #4
 800359e:	4604      	mov	r4, r0
 80035a0:	f7fe fe45 	bl	800222e <validate>
 80035a4:	4606      	mov	r6, r0
 80035a6:	b9e8      	cbnz	r0, 80035e4 <f_lseek+0x4e>
 80035a8:	7d66      	ldrb	r6, [r4, #21]
 80035aa:	b9de      	cbnz	r6, 80035e4 <f_lseek+0x4e>
 80035ac:	6ae3      	ldr	r3, [r4, #44]	@ 0x2c
 80035ae:	2b00      	cmp	r3, #0
 80035b0:	d07b      	beq.n	80036aa <f_lseek+0x114>
 80035b2:	1c6a      	adds	r2, r5, #1
 80035b4:	d139      	bne.n	800362a <f_lseek+0x94>
 80035b6:	461d      	mov	r5, r3
 80035b8:	f8d4 8008 	ldr.w	r8, [r4, #8]
 80035bc:	f855 bb04 	ldr.w	fp, [r5], #4
 80035c0:	2702      	movs	r7, #2
 80035c2:	f1b8 0f00 	cmp.w	r8, #0
 80035c6:	d028      	beq.n	800361a <f_lseek+0x84>
 80035c8:	4640      	mov	r0, r8
 80035ca:	f04f 0a00 	mov.w	sl, #0
 80035ce:	4601      	mov	r1, r0
 80035d0:	4681      	mov	r9, r0
 80035d2:	6820      	ldr	r0, [r4, #0]
 80035d4:	f7ff f8cb 	bl	800276e <get_fat.isra.0>
 80035d8:	2801      	cmp	r0, #1
 80035da:	f10a 0a01 	add.w	sl, sl, #1
 80035de:	d807      	bhi.n	80035f0 <f_lseek+0x5a>
 80035e0:	2602      	movs	r6, #2
 80035e2:	7566      	strb	r6, [r4, #21]
 80035e4:	4630      	mov	r0, r6
 80035e6:	b003      	add	sp, #12
 80035e8:	e8bd 8ff0 	ldmia.w	sp!, {r4, r5, r6, r7, r8, r9, sl, fp, pc}
 80035ec:	4680      	mov	r8, r0
 80035ee:	e7eb      	b.n	80035c8 <f_lseek+0x32>
 80035f0:	1c43      	adds	r3, r0, #1
 80035f2:	d101      	bne.n	80035f8 <f_lseek+0x62>
 80035f4:	2601      	movs	r6, #1
 80035f6:	e7f4      	b.n	80035e2 <f_lseek+0x4c>
 80035f8:	f109 0901 	add.w	r9, r9, #1
 80035fc:	4581      	cmp	r9, r0
 80035fe:	d0e6      	beq.n	80035ce <f_lseek+0x38>
 8003600:	3702      	adds	r7, #2
 8003602:	45bb      	cmp	fp, r7
 8003604:	bf21      	itttt	cs
 8003606:	462b      	movcs	r3, r5
 8003608:	f843 ab08 	strcs.w	sl, [r3], #8
 800360c:	f8c5 8004 	strcs.w	r8, [r5, #4]
 8003610:	461d      	movcs	r5, r3
 8003612:	9b01      	ldr	r3, [sp, #4]
 8003614:	699b      	ldr	r3, [r3, #24]
 8003616:	4283      	cmp	r3, r0
 8003618:	d8e8      	bhi.n	80035ec <f_lseek+0x56>
 800361a:	6ae3      	ldr	r3, [r4, #44]	@ 0x2c
 800361c:	455f      	cmp	r7, fp
 800361e:	601f      	str	r7, [r3, #0]
 8003620:	f200 80d2 	bhi.w	80037c8 <f_lseek+0x232>
 8003624:	2300      	movs	r3, #0
 8003626:	602b      	str	r3, [r5, #0]
 8003628:	e7dc      	b.n	80035e4 <f_lseek+0x4e>
 800362a:	68e7      	ldr	r7, [r4, #12]
 800362c:	42af      	cmp	r7, r5
 800362e:	bf28      	it	cs
 8003630:	462f      	movcs	r7, r5
 8003632:	61a7      	str	r7, [r4, #24]
 8003634:	2f00      	cmp	r7, #0
 8003636:	d0d5      	beq.n	80035e4 <f_lseek+0x4e>
 8003638:	f107 39ff 	add.w	r9, r7, #4294967295
 800363c:	4649      	mov	r1, r9
 800363e:	4620      	mov	r0, r4
 8003640:	f7fe fdbd 	bl	80021be <clmt_clust>
 8003644:	f8dd 8004 	ldr.w	r8, [sp, #4]
 8003648:	61e0      	str	r0, [r4, #28]
 800364a:	4601      	mov	r1, r0
 800364c:	4640      	mov	r0, r8
 800364e:	f7fe fdab 	bl	80021a8 <clust2sect>
 8003652:	2800      	cmp	r0, #0
 8003654:	d0c4      	beq.n	80035e0 <f_lseek+0x4a>
 8003656:	f3c7 0708 	ubfx	r7, r7, #0, #9
 800365a:	f8b8 500a 	ldrh.w	r5, [r8, #10]
 800365e:	2f00      	cmp	r7, #0
 8003660:	d0c0      	beq.n	80035e4 <f_lseek+0x4e>
 8003662:	3d01      	subs	r5, #1
 8003664:	6a22      	ldr	r2, [r4, #32]
 8003666:	ea05 2559 	and.w	r5, r5, r9, lsr #9
 800366a:	4405      	add	r5, r0
 800366c:	42aa      	cmp	r2, r5
 800366e:	d0b9      	beq.n	80035e4 <f_lseek+0x4e>
 8003670:	f994 3014 	ldrsb.w	r3, [r4, #20]
 8003674:	f898 0001 	ldrb.w	r0, [r8, #1]
 8003678:	2b00      	cmp	r3, #0
 800367a:	f104 0730 	add.w	r7, r4, #48	@ 0x30
 800367e:	da09      	bge.n	8003694 <f_lseek+0xfe>
 8003680:	2301      	movs	r3, #1
 8003682:	4639      	mov	r1, r7
 8003684:	f7fe fcca 	bl	800201c <disk_write>
 8003688:	2800      	cmp	r0, #0
 800368a:	d1b3      	bne.n	80035f4 <f_lseek+0x5e>
 800368c:	7d23      	ldrb	r3, [r4, #20]
 800368e:	f003 037f 	and.w	r3, r3, #127	@ 0x7f
 8003692:	7523      	strb	r3, [r4, #20]
 8003694:	f898 0001 	ldrb.w	r0, [r8, #1]
 8003698:	2301      	movs	r3, #1
 800369a:	462a      	mov	r2, r5
 800369c:	4639      	mov	r1, r7
 800369e:	f7fe fcaf 	bl	8002000 <disk_read>
 80036a2:	2800      	cmp	r0, #0
 80036a4:	d1a6      	bne.n	80035f4 <f_lseek+0x5e>
 80036a6:	6225      	str	r5, [r4, #32]
 80036a8:	e79c      	b.n	80035e4 <f_lseek+0x4e>
 80036aa:	68e3      	ldr	r3, [r4, #12]
 80036ac:	42ab      	cmp	r3, r5
 80036ae:	d204      	bcs.n	80036ba <f_lseek+0x124>
 80036b0:	7d22      	ldrb	r2, [r4, #20]
 80036b2:	f012 0f02 	tst.w	r2, #2
 80036b6:	bf08      	it	eq
 80036b8:	461d      	moveq	r5, r3
 80036ba:	2200      	movs	r2, #0
 80036bc:	69a3      	ldr	r3, [r4, #24]
 80036be:	61a2      	str	r2, [r4, #24]
 80036c0:	bb55      	cbnz	r5, 8003718 <f_lseek+0x182>
 80036c2:	2500      	movs	r5, #0
 80036c4:	68e2      	ldr	r2, [r4, #12]
 80036c6:	69a3      	ldr	r3, [r4, #24]
 80036c8:	4293      	cmp	r3, r2
 80036ca:	bf82      	ittt	hi
 80036cc:	7d22      	ldrbhi	r2, [r4, #20]
 80036ce:	60e3      	strhi	r3, [r4, #12]
 80036d0:	f042 0240 	orrhi.w	r2, r2, #64	@ 0x40
 80036d4:	f3c3 0308 	ubfx	r3, r3, #0, #9
 80036d8:	bf88      	it	hi
 80036da:	7522      	strbhi	r2, [r4, #20]
 80036dc:	2b00      	cmp	r3, #0
 80036de:	d081      	beq.n	80035e4 <f_lseek+0x4e>
 80036e0:	6a22      	ldr	r2, [r4, #32]
 80036e2:	42aa      	cmp	r2, r5
 80036e4:	f43f af7e 	beq.w	80035e4 <f_lseek+0x4e>
 80036e8:	f994 3014 	ldrsb.w	r3, [r4, #20]
 80036ec:	9f01      	ldr	r7, [sp, #4]
 80036ee:	2b00      	cmp	r3, #0
 80036f0:	7878      	ldrb	r0, [r7, #1]
 80036f2:	f104 0830 	add.w	r8, r4, #48	@ 0x30
 80036f6:	da0a      	bge.n	800370e <f_lseek+0x178>
 80036f8:	2301      	movs	r3, #1
 80036fa:	4641      	mov	r1, r8
 80036fc:	f7fe fc8e 	bl	800201c <disk_write>
 8003700:	2800      	cmp	r0, #0
 8003702:	f47f af77 	bne.w	80035f4 <f_lseek+0x5e>
 8003706:	7d23      	ldrb	r3, [r4, #20]
 8003708:	f003 037f 	and.w	r3, r3, #127	@ 0x7f
 800370c:	7523      	strb	r3, [r4, #20]
 800370e:	7878      	ldrb	r0, [r7, #1]
 8003710:	2301      	movs	r3, #1
 8003712:	462a      	mov	r2, r5
 8003714:	4641      	mov	r1, r8
 8003716:	e7c2      	b.n	800369e <f_lseek+0x108>
 8003718:	9f01      	ldr	r7, [sp, #4]
 800371a:	f8b7 800a 	ldrh.w	r8, [r7, #10]
 800371e:	ea4f 2848 	mov.w	r8, r8, lsl #9
 8003722:	b313      	cbz	r3, 800376a <f_lseek+0x1d4>
 8003724:	3b01      	subs	r3, #1
 8003726:	1e6a      	subs	r2, r5, #1
 8003728:	fbb3 f1f8 	udiv	r1, r3, r8
 800372c:	fbb2 f2f8 	udiv	r2, r2, r8
 8003730:	428a      	cmp	r2, r1
 8003732:	d31a      	bcc.n	800376a <f_lseek+0x1d4>
 8003734:	f1c8 0200 	rsb	r2, r8, #0
 8003738:	4013      	ands	r3, r2
 800373a:	69e1      	ldr	r1, [r4, #28]
 800373c:	61a3      	str	r3, [r4, #24]
 800373e:	1aed      	subs	r5, r5, r3
 8003740:	2900      	cmp	r1, #0
 8003742:	d0be      	beq.n	80036c2 <f_lseek+0x12c>
 8003744:	4545      	cmp	r5, r8
 8003746:	69a3      	ldr	r3, [r4, #24]
 8003748:	d81e      	bhi.n	8003788 <f_lseek+0x1f2>
 800374a:	69a3      	ldr	r3, [r4, #24]
 800374c:	442b      	add	r3, r5
 800374e:	61a3      	str	r3, [r4, #24]
 8003750:	f3c5 0308 	ubfx	r3, r5, #0, #9
 8003754:	2b00      	cmp	r3, #0
 8003756:	d0b4      	beq.n	80036c2 <f_lseek+0x12c>
 8003758:	4638      	mov	r0, r7
 800375a:	f7fe fd25 	bl	80021a8 <clust2sect>
 800375e:	2800      	cmp	r0, #0
 8003760:	f43f af3e 	beq.w	80035e0 <f_lseek+0x4a>
 8003764:	eb00 2555 	add.w	r5, r0, r5, lsr #9
 8003768:	e7ac      	b.n	80036c4 <f_lseek+0x12e>
 800376a:	68a1      	ldr	r1, [r4, #8]
 800376c:	b951      	cbnz	r1, 8003784 <f_lseek+0x1ee>
 800376e:	4620      	mov	r0, r4
 8003770:	f7ff f88a 	bl	8002888 <create_chain>
 8003774:	2801      	cmp	r0, #1
 8003776:	4601      	mov	r1, r0
 8003778:	f43f af32 	beq.w	80035e0 <f_lseek+0x4a>
 800377c:	1c48      	adds	r0, r1, #1
 800377e:	f43f af39 	beq.w	80035f4 <f_lseek+0x5e>
 8003782:	60a1      	str	r1, [r4, #8]
 8003784:	61e1      	str	r1, [r4, #28]
 8003786:	e7db      	b.n	8003740 <f_lseek+0x1aa>
 8003788:	4443      	add	r3, r8
 800378a:	61a3      	str	r3, [r4, #24]
 800378c:	7d23      	ldrb	r3, [r4, #20]
 800378e:	079a      	lsls	r2, r3, #30
 8003790:	eba5 0908 	sub.w	r9, r5, r8
 8003794:	d506      	bpl.n	80037a4 <f_lseek+0x20e>
 8003796:	4620      	mov	r0, r4
 8003798:	f7ff f876 	bl	8002888 <create_chain>
 800379c:	4605      	mov	r5, r0
 800379e:	b928      	cbnz	r0, 80037ac <f_lseek+0x216>
 80037a0:	4601      	mov	r1, r0
 80037a2:	e7d2      	b.n	800374a <f_lseek+0x1b4>
 80037a4:	6820      	ldr	r0, [r4, #0]
 80037a6:	f7fe ffe2 	bl	800276e <get_fat.isra.0>
 80037aa:	4605      	mov	r5, r0
 80037ac:	1c6b      	adds	r3, r5, #1
 80037ae:	f43f af21 	beq.w	80035f4 <f_lseek+0x5e>
 80037b2:	2d01      	cmp	r5, #1
 80037b4:	f67f af14 	bls.w	80035e0 <f_lseek+0x4a>
 80037b8:	69bb      	ldr	r3, [r7, #24]
 80037ba:	42ab      	cmp	r3, r5
 80037bc:	f67f af10 	bls.w	80035e0 <f_lseek+0x4a>
 80037c0:	61e5      	str	r5, [r4, #28]
 80037c2:	4629      	mov	r1, r5
 80037c4:	464d      	mov	r5, r9
 80037c6:	e7bd      	b.n	8003744 <f_lseek+0x1ae>
 80037c8:	2611      	movs	r6, #17
 80037ca:	e70b      	b.n	80035e4 <f_lseek+0x4e>

080037cc <FATFS_LinkDriverEx>:
 80037cc:	b530      	push	{r4, r5, lr}
 80037ce:	4b0e      	ldr	r3, [pc, #56]	@ (8003808 <FATFS_LinkDriverEx+0x3c>)
 80037d0:	7a5c      	ldrb	r4, [r3, #9]
 80037d2:	4605      	mov	r5, r0
 80037d4:	f004 00ff 	and.w	r0, r4, #255	@ 0xff
 80037d8:	b9a4      	cbnz	r4, 8003804 <FATFS_LinkDriverEx+0x38>
 80037da:	7a5c      	ldrb	r4, [r3, #9]
 80037dc:	5518      	strb	r0, [r3, r4]
 80037de:	7a5c      	ldrb	r4, [r3, #9]
 80037e0:	eb03 0484 	add.w	r4, r3, r4, lsl #2
 80037e4:	6065      	str	r5, [r4, #4]
 80037e6:	7a5c      	ldrb	r4, [r3, #9]
 80037e8:	441c      	add	r4, r3
 80037ea:	7222      	strb	r2, [r4, #8]
 80037ec:	7a5a      	ldrb	r2, [r3, #9]
 80037ee:	1c54      	adds	r4, r2, #1
 80037f0:	b2e4      	uxtb	r4, r4
 80037f2:	725c      	strb	r4, [r3, #9]
 80037f4:	233a      	movs	r3, #58	@ 0x3a
 80037f6:	3230      	adds	r2, #48	@ 0x30
 80037f8:	704b      	strb	r3, [r1, #1]
 80037fa:	232f      	movs	r3, #47	@ 0x2f
 80037fc:	700a      	strb	r2, [r1, #0]
 80037fe:	708b      	strb	r3, [r1, #2]
 8003800:	70c8      	strb	r0, [r1, #3]
 8003802:	bd30      	pop	{r4, r5, pc}
 8003804:	2001      	movs	r0, #1
 8003806:	e7fc      	b.n	8003802 <FATFS_LinkDriverEx+0x36>
 8003808:	200005f0 	.word	0x200005f0

0800380c <FATFS_LinkDriver>:
 800380c:	2200      	movs	r2, #0
 800380e:	f7ff bfdd 	b.w	80037cc <FATFS_LinkDriverEx>
	...

08003814 <ff_convert>:
 8003814:	287f      	cmp	r0, #127	@ 0x7f
 8003816:	d915      	bls.n	8003844 <ff_convert+0x30>
 8003818:	b131      	cbz	r1, 8003828 <ff_convert+0x14>
 800381a:	28ff      	cmp	r0, #255	@ 0xff
 800381c:	d811      	bhi.n	8003842 <ff_convert+0x2e>
 800381e:	4b0a      	ldr	r3, [pc, #40]	@ (8003848 <ff_convert+0x34>)
 8003820:	3880      	subs	r0, #128	@ 0x80
 8003822:	f833 0010 	ldrh.w	r0, [r3, r0, lsl #1]
 8003826:	4770      	bx	lr
 8003828:	4b07      	ldr	r3, [pc, #28]	@ (8003848 <ff_convert+0x34>)
 800382a:	f833 2b02 	ldrh.w	r2, [r3], #2
 800382e:	4282      	cmp	r2, r0
 8003830:	d005      	beq.n	800383e <ff_convert+0x2a>
 8003832:	3101      	adds	r1, #1
 8003834:	2980      	cmp	r1, #128	@ 0x80
 8003836:	d1f8      	bne.n	800382a <ff_convert+0x16>
 8003838:	3180      	adds	r1, #128	@ 0x80
 800383a:	b2c8      	uxtb	r0, r1
 800383c:	4770      	bx	lr
 800383e:	b289      	uxth	r1, r1
 8003840:	e7fa      	b.n	8003838 <ff_convert+0x24>
 8003842:	2000      	movs	r0, #0
 8003844:	4770      	bx	lr
 8003846:	bf00      	nop
 8003848:	08003cc4 	.word	0x08003cc4

0800384c <ff_wtoupper>:
 800384c:	b570      	push	{r4, r5, r6, lr}
 800384e:	4b1e      	ldr	r3, [pc, #120]	@ (80038c8 <ff_wtoupper+0x7c>)
 8003850:	4a1e      	ldr	r2, [pc, #120]	@ (80038cc <ff_wtoupper+0x80>)
 8003852:	f5b0 5f80 	cmp.w	r0, #4096	@ 0x1000
 8003856:	bf28      	it	cs
 8003858:	4613      	movcs	r3, r2
 800385a:	1d19      	adds	r1, r3, #4
 800385c:	f831 3c04 	ldrh.w	r3, [r1, #-4]
 8003860:	460a      	mov	r2, r1
 8003862:	b1ab      	cbz	r3, 8003890 <ff_wtoupper+0x44>
 8003864:	4298      	cmp	r0, r3
 8003866:	d313      	bcc.n	8003890 <ff_wtoupper+0x44>
 8003868:	f831 4c02 	ldrh.w	r4, [r1, #-2]
 800386c:	0a25      	lsrs	r5, r4, #8
 800386e:	b2e6      	uxtb	r6, r4
 8003870:	fa53 f484 	uxtab	r4, r3, r4
 8003874:	42a0      	cmp	r0, r4
 8003876:	da21      	bge.n	80038bc <ff_wtoupper+0x70>
 8003878:	2d08      	cmp	r5, #8
 800387a:	d809      	bhi.n	8003890 <ff_wtoupper+0x44>
 800387c:	e8df f005 	tbb	[pc, r5]
 8003880:	110f0905 	.word	0x110f0905
 8003884:	19171513 	.word	0x19171513
 8003888:	1b          	.byte	0x1b
 8003889:	00          	.byte	0x00
 800388a:	1ac0      	subs	r0, r0, r3
 800388c:	f831 0010 	ldrh.w	r0, [r1, r0, lsl #1]
 8003890:	bd70      	pop	{r4, r5, r6, pc}
 8003892:	1ac3      	subs	r3, r0, r3
 8003894:	f003 0301 	and.w	r3, r3, #1
 8003898:	1ac0      	subs	r0, r0, r3
 800389a:	b280      	uxth	r0, r0
 800389c:	e7f8      	b.n	8003890 <ff_wtoupper+0x44>
 800389e:	3810      	subs	r0, #16
 80038a0:	e7fb      	b.n	800389a <ff_wtoupper+0x4e>
 80038a2:	3820      	subs	r0, #32
 80038a4:	e7f9      	b.n	800389a <ff_wtoupper+0x4e>
 80038a6:	3830      	subs	r0, #48	@ 0x30
 80038a8:	e7f7      	b.n	800389a <ff_wtoupper+0x4e>
 80038aa:	381a      	subs	r0, #26
 80038ac:	e7f5      	b.n	800389a <ff_wtoupper+0x4e>
 80038ae:	3008      	adds	r0, #8
 80038b0:	e7f3      	b.n	800389a <ff_wtoupper+0x4e>
 80038b2:	3850      	subs	r0, #80	@ 0x50
 80038b4:	e7f1      	b.n	800389a <ff_wtoupper+0x4e>
 80038b6:	f5a0 50e3 	sub.w	r0, r0, #7264	@ 0x1c60
 80038ba:	e7ee      	b.n	800389a <ff_wtoupper+0x4e>
 80038bc:	3104      	adds	r1, #4
 80038be:	2d00      	cmp	r5, #0
 80038c0:	d1cc      	bne.n	800385c <ff_wtoupper+0x10>
 80038c2:	eb02 0346 	add.w	r3, r2, r6, lsl #1
 80038c6:	e7c8      	b.n	800385a <ff_wtoupper+0xe>
 80038c8:	08003ad2 	.word	0x08003ad2
 80038cc:	08003a16 	.word	0x08003a16

080038d0 <memset>:
 80038d0:	4402      	add	r2, r0
 80038d2:	4603      	mov	r3, r0
 80038d4:	4293      	cmp	r3, r2
 80038d6:	d100      	bne.n	80038da <memset+0xa>
 80038d8:	4770      	bx	lr
 80038da:	f803 1b01 	strb.w	r1, [r3], #1
 80038de:	e7f9      	b.n	80038d4 <memset+0x4>

080038e0 <__libc_init_array>:
 80038e0:	b570      	push	{r4, r5, r6, lr}
 80038e2:	4d0d      	ldr	r5, [pc, #52]	@ (8003918 <__libc_init_array+0x38>)
 80038e4:	4c0d      	ldr	r4, [pc, #52]	@ (800391c <__libc_init_array+0x3c>)
 80038e6:	1b64      	subs	r4, r4, r5
 80038e8:	10a4      	asrs	r4, r4, #2
 80038ea:	2600      	movs	r6, #0
 80038ec:	42a6      	cmp	r6, r4
 80038ee:	d109      	bne.n	8003904 <__libc_init_array+0x24>
 80038f0:	4d0b      	ldr	r5, [pc, #44]	@ (8003920 <__libc_init_array+0x40>)
 80038f2:	4c0c      	ldr	r4, [pc, #48]	@ (8003924 <__libc_init_array+0x44>)
 80038f4:	f000 f818 	bl	8003928 <_init>
 80038f8:	1b64      	subs	r4, r4, r5
 80038fa:	10a4      	asrs	r4, r4, #2
 80038fc:	2600      	movs	r6, #0
 80038fe:	42a6      	cmp	r6, r4
 8003900:	d105      	bne.n	800390e <__libc_init_array+0x2e>
 8003902:	bd70      	pop	{r4, r5, r6, pc}
 8003904:	f855 3b04 	ldr.w	r3, [r5], #4
 8003908:	4798      	blx	r3
 800390a:	3601      	adds	r6, #1
 800390c:	e7ee      	b.n	80038ec <__libc_init_array+0xc>
 800390e:	f855 3b04 	ldr.w	r3, [r5], #4
 8003912:	4798      	blx	r3
 8003914:	3601      	adds	r6, #1
 8003916:	e7f2      	b.n	80038fe <__libc_init_array+0x1e>
 8003918:	08003dcc 	.word	0x08003dcc
 800391c:	08003dcc 	.word	0x08003dcc
 8003920:	08003dcc 	.word	0x08003dcc
 8003924:	08003dd0 	.word	0x08003dd0

08003928 <_init>:
 8003928:	b5f8      	push	{r3, r4, r5, r6, r7, lr}
 800392a:	bf00      	nop
 800392c:	bcf8      	pop	{r3, r4, r5, r6, r7}
 800392e:	bc08      	pop	{r3}
 8003930:	469e      	mov	lr, r3
 8003932:	4770      	bx	lr

08003934 <_fini>:
 8003934:	b5f8      	push	{r3, r4, r5, r6, r7, lr}
 8003936:	bf00      	nop
 8003938:	bcf8      	pop	{r3, r4, r5, r6, r7}
 800393a:	bc08      	pop	{r3}
 800393c:	469e      	mov	lr, r3
 800393e:	4770      	bx	lr
